
a.exe:     file format pei-x86-64


Disassembly of section .text:

0000000140001000 <__mingw_invalidParameterHandler>:
   140001000:	55                   	push   %rbp
   140001001:	48 89 e5             	mov    %rsp,%rbp
   140001004:	48 89 4d 10          	mov    %rcx,0x10(%rbp)
   140001008:	48 89 55 18          	mov    %rdx,0x18(%rbp)
   14000100c:	4c 89 45 20          	mov    %r8,0x20(%rbp)
   140001010:	44 89 4d 28          	mov    %r9d,0x28(%rbp)
   140001014:	90                   	nop
   140001015:	5d                   	pop    %rbp
   140001016:	c3                   	ret

0000000140001017 <pre_c_init>:
   140001017:	55                   	push   %rbp
   140001018:	48 89 e5             	mov    %rsp,%rbp
   14000101b:	48 83 ec 20          	sub    $0x20,%rsp
   14000101f:	e8 54 03 00 00       	call   140001378 <check_managed_app>
   140001024:	89 05 f6 8f 01 00    	mov    %eax,0x18ff6(%rip)        # 14001a020 <managedapp>
   14000102a:	48 8b 05 bf 4e 01 00 	mov    0x14ebf(%rip),%rax        # 140015ef0 <.refptr.__mingw_app_type>
   140001031:	8b 00                	mov    (%rax),%eax
   140001033:	85 c0                	test   %eax,%eax
   140001035:	74 0c                	je     140001043 <pre_c_init+0x2c>
   140001037:	b9 02 00 00 00       	mov    $0x2,%ecx
   14000103c:	e8 cf 09 01 00       	call   140011a10 <__set_app_type>
   140001041:	eb 0a                	jmp    14000104d <pre_c_init+0x36>
   140001043:	b9 01 00 00 00       	mov    $0x1,%ecx
   140001048:	e8 c3 09 01 00       	call   140011a10 <__set_app_type>
   14000104d:	e8 2e 09 01 00       	call   140011980 <__p__fmode>
   140001052:	48 8b 15 77 4f 01 00 	mov    0x14f77(%rip),%rdx        # 140015fd0 <.refptr._fmode>
   140001059:	8b 12                	mov    (%rdx),%edx
   14000105b:	89 10                	mov    %edx,(%rax)
   14000105d:	e8 0e 09 01 00       	call   140011970 <__p__commode>
   140001062:	48 8b 15 47 4f 01 00 	mov    0x14f47(%rip),%rdx        # 140015fb0 <.refptr._commode>
   140001069:	8b 12                	mov    (%rdx),%edx
   14000106b:	89 10                	mov    %edx,(%rax)
   14000106d:	e8 fe ee 00 00       	call   14000ff70 <_setargv>
   140001072:	48 8b 05 e7 4d 01 00 	mov    0x14de7(%rip),%rax        # 140015e60 <.refptr._MINGW_INSTALL_DEBUG_MATHERR>
   140001079:	8b 00                	mov    (%rax),%eax
   14000107b:	83 f8 01             	cmp    $0x1,%eax
   14000107e:	75 0f                	jne    14000108f <pre_c_init+0x78>
   140001080:	48 8b 05 69 4f 01 00 	mov    0x14f69(%rip),%rax        # 140015ff0 <.refptr._matherr>
   140001087:	48 89 c1             	mov    %rax,%rcx
   14000108a:	e8 3b fa 00 00       	call   140010aca <__mingw_setusermatherr>
   14000108f:	b8 00 00 00 00       	mov    $0x0,%eax
   140001094:	48 83 c4 20          	add    $0x20,%rsp
   140001098:	5d                   	pop    %rbp
   140001099:	c3                   	ret

000000014000109a <pre_cpp_init>:
   14000109a:	55                   	push   %rbp
   14000109b:	48 89 e5             	mov    %rsp,%rbp
   14000109e:	48 83 ec 30          	sub    $0x30,%rsp
   1400010a2:	48 8b 05 57 4f 01 00 	mov    0x14f57(%rip),%rax        # 140016000 <.refptr._newmode>
   1400010a9:	8b 00                	mov    (%rax),%eax
   1400010ab:	89 05 77 8f 01 00    	mov    %eax,0x18f77(%rip)        # 14001a028 <startinfo>
   1400010b1:	48 8b 05 08 4f 01 00 	mov    0x14f08(%rip),%rax        # 140015fc0 <.refptr._dowildcard>
   1400010b8:	8b 10                	mov    (%rax),%edx
   1400010ba:	48 8d 05 67 8f 01 00 	lea    0x18f67(%rip),%rax        # 14001a028 <startinfo>
   1400010c1:	48 89 44 24 20       	mov    %rax,0x20(%rsp)
   1400010c6:	41 89 d1             	mov    %edx,%r9d
   1400010c9:	4c 8d 05 40 8f 01 00 	lea    0x18f40(%rip),%r8        # 14001a010 <envp>
   1400010d0:	48 8d 05 31 8f 01 00 	lea    0x18f31(%rip),%rax        # 14001a008 <argv>
   1400010d7:	48 89 c2             	mov    %rax,%rdx
   1400010da:	48 8d 05 23 8f 01 00 	lea    0x18f23(%rip),%rax        # 14001a004 <argc>
   1400010e1:	48 89 c1             	mov    %rax,%rcx
   1400010e4:	e8 07 06 01 00       	call   1400116f0 <__getmainargs>
   1400010e9:	89 05 29 8f 01 00    	mov    %eax,0x18f29(%rip)        # 14001a018 <argret>
   1400010ef:	90                   	nop
   1400010f0:	48 83 c4 30          	add    $0x30,%rsp
   1400010f4:	5d                   	pop    %rbp
   1400010f5:	c3                   	ret

00000001400010f6 <WinMainCRTStartup>:
   1400010f6:	55                   	push   %rbp
   1400010f7:	48 89 e5             	mov    %rsp,%rbp
   1400010fa:	48 83 ec 30          	sub    $0x30,%rsp
   1400010fe:	c7 45 fc ff 00 00 00 	movl   $0xff,-0x4(%rbp)

0000000140001105 <.l_startw>:
   140001105:	48 8b 05 e4 4d 01 00 	mov    0x14de4(%rip),%rax        # 140015ef0 <.refptr.__mingw_app_type>
   14000110c:	c7 00 01 00 00 00    	movl   $0x1,(%rax)
   140001112:	e8 3d 00 00 00       	call   140001154 <__tmainCRTStartup>
   140001117:	89 45 fc             	mov    %eax,-0x4(%rbp)
   14000111a:	90                   	nop

000000014000111b <.l_endw>:
   14000111b:	90                   	nop
   14000111c:	8b 45 fc             	mov    -0x4(%rbp),%eax
   14000111f:	48 83 c4 30          	add    $0x30,%rsp
   140001123:	5d                   	pop    %rbp
   140001124:	c3                   	ret

0000000140001125 <mainCRTStartup>:
   140001125:	55                   	push   %rbp
   140001126:	48 89 e5             	mov    %rsp,%rbp
   140001129:	48 83 ec 30          	sub    $0x30,%rsp
   14000112d:	c7 45 fc ff 00 00 00 	movl   $0xff,-0x4(%rbp)

0000000140001134 <.l_start>:
   140001134:	48 8b 05 b5 4d 01 00 	mov    0x14db5(%rip),%rax        # 140015ef0 <.refptr.__mingw_app_type>
   14000113b:	c7 00 00 00 00 00    	movl   $0x0,(%rax)
   140001141:	e8 0e 00 00 00       	call   140001154 <__tmainCRTStartup>
   140001146:	89 45 fc             	mov    %eax,-0x4(%rbp)
   140001149:	90                   	nop

000000014000114a <.l_end>:
   14000114a:	90                   	nop
   14000114b:	8b 45 fc             	mov    -0x4(%rbp),%eax
   14000114e:	48 83 c4 30          	add    $0x30,%rsp
   140001152:	5d                   	pop    %rbp
   140001153:	c3                   	ret

0000000140001154 <__tmainCRTStartup>:
   140001154:	55                   	push   %rbp
   140001155:	48 89 e5             	mov    %rsp,%rbp
   140001158:	48 83 ec 70          	sub    $0x70,%rsp
   14000115c:	48 c7 45 f0 00 00 00 	movq   $0x0,-0x10(%rbp)
   140001163:	00 
   140001164:	c7 45 e4 30 00 00 00 	movl   $0x30,-0x1c(%rbp)
   14000116b:	8b 45 e4             	mov    -0x1c(%rbp),%eax
   14000116e:	65 48 8b 00          	mov    %gs:(%rax),%rax
   140001172:	48 89 45 d8          	mov    %rax,-0x28(%rbp)
   140001176:	48 8b 45 d8          	mov    -0x28(%rbp),%rax
   14000117a:	48 8b 40 08          	mov    0x8(%rax),%rax
   14000117e:	48 89 45 e8          	mov    %rax,-0x18(%rbp)
   140001182:	c7 45 fc 00 00 00 00 	movl   $0x0,-0x4(%rbp)
   140001189:	eb 21                	jmp    1400011ac <__tmainCRTStartup+0x58>
   14000118b:	48 8b 45 f0          	mov    -0x10(%rbp),%rax
   14000118f:	48 3b 45 e8          	cmp    -0x18(%rbp),%rax
   140001193:	75 09                	jne    14000119e <__tmainCRTStartup+0x4a>
   140001195:	c7 45 fc 01 00 00 00 	movl   $0x1,-0x4(%rbp)
   14000119c:	eb 45                	jmp    1400011e3 <__tmainCRTStartup+0x8f>
   14000119e:	b9 e8 03 00 00       	mov    $0x3e8,%ecx
   1400011a3:	48 8b 05 ee a0 01 00 	mov    0x1a0ee(%rip),%rax        # 14001b298 <__imp_Sleep>
   1400011aa:	ff d0                	call   *%rax
   1400011ac:	48 8b 05 9d 4d 01 00 	mov    0x14d9d(%rip),%rax        # 140015f50 <.refptr.__native_startup_lock>
   1400011b3:	48 89 45 d0          	mov    %rax,-0x30(%rbp)
   1400011b7:	48 8b 45 e8          	mov    -0x18(%rbp),%rax
   1400011bb:	48 89 45 c8          	mov    %rax,-0x38(%rbp)
   1400011bf:	48 c7 45 c0 00 00 00 	movq   $0x0,-0x40(%rbp)
   1400011c6:	00 
   1400011c7:	48 8b 4d c8          	mov    -0x38(%rbp),%rcx
   1400011cb:	48 8b 45 c0          	mov    -0x40(%rbp),%rax
   1400011cf:	48 8b 55 d0          	mov    -0x30(%rbp),%rdx
   1400011d3:	f0 48 0f b1 0a       	lock cmpxchg %rcx,(%rdx)
   1400011d8:	48 89 45 f0          	mov    %rax,-0x10(%rbp)
   1400011dc:	48 83 7d f0 00       	cmpq   $0x0,-0x10(%rbp)
   1400011e1:	75 a8                	jne    14000118b <__tmainCRTStartup+0x37>
   1400011e3:	48 8b 05 76 4d 01 00 	mov    0x14d76(%rip),%rax        # 140015f60 <.refptr.__native_startup_state>
   1400011ea:	8b 00                	mov    (%rax),%eax
   1400011ec:	83 f8 01             	cmp    $0x1,%eax
   1400011ef:	75 0c                	jne    1400011fd <__tmainCRTStartup+0xa9>
   1400011f1:	b9 1f 00 00 00       	mov    $0x1f,%ecx
   1400011f6:	e8 55 06 01 00       	call   140011850 <_amsg_exit>
   1400011fb:	eb 3f                	jmp    14000123c <__tmainCRTStartup+0xe8>
   1400011fd:	48 8b 05 5c 4d 01 00 	mov    0x14d5c(%rip),%rax        # 140015f60 <.refptr.__native_startup_state>
   140001204:	8b 00                	mov    (%rax),%eax
   140001206:	85 c0                	test   %eax,%eax
   140001208:	75 28                	jne    140001232 <__tmainCRTStartup+0xde>
   14000120a:	48 8b 05 4f 4d 01 00 	mov    0x14d4f(%rip),%rax        # 140015f60 <.refptr.__native_startup_state>
   140001211:	c7 00 01 00 00 00    	movl   $0x1,(%rax)
   140001217:	48 8b 05 82 4d 01 00 	mov    0x14d82(%rip),%rax        # 140015fa0 <.refptr.__xi_z>
   14000121e:	48 89 c2             	mov    %rax,%rdx
   140001221:	48 8b 05 68 4d 01 00 	mov    0x14d68(%rip),%rax        # 140015f90 <.refptr.__xi_a>
   140001228:	48 89 c1             	mov    %rax,%rcx
   14000122b:	e8 d8 07 01 00       	call   140011a08 <_initterm>
   140001230:	eb 0a                	jmp    14000123c <__tmainCRTStartup+0xe8>
   140001232:	c7 05 e8 8d 01 00 01 	movl   $0x1,0x18de8(%rip)        # 14001a024 <has_cctor>
   140001239:	00 00 00 
   14000123c:	48 8b 05 1d 4d 01 00 	mov    0x14d1d(%rip),%rax        # 140015f60 <.refptr.__native_startup_state>
   140001243:	8b 00                	mov    (%rax),%eax
   140001245:	83 f8 01             	cmp    $0x1,%eax
   140001248:	75 26                	jne    140001270 <__tmainCRTStartup+0x11c>
   14000124a:	48 8b 05 2f 4d 01 00 	mov    0x14d2f(%rip),%rax        # 140015f80 <.refptr.__xc_z>
   140001251:	48 89 c2             	mov    %rax,%rdx
   140001254:	48 8b 05 15 4d 01 00 	mov    0x14d15(%rip),%rax        # 140015f70 <.refptr.__xc_a>
   14000125b:	48 89 c1             	mov    %rax,%rcx
   14000125e:	e8 a5 07 01 00       	call   140011a08 <_initterm>
   140001263:	48 8b 05 f6 4c 01 00 	mov    0x14cf6(%rip),%rax        # 140015f60 <.refptr.__native_startup_state>
   14000126a:	c7 00 02 00 00 00    	movl   $0x2,(%rax)
   140001270:	83 7d fc 00          	cmpl   $0x0,-0x4(%rbp)
   140001274:	75 1e                	jne    140001294 <__tmainCRTStartup+0x140>
   140001276:	48 8b 05 d3 4c 01 00 	mov    0x14cd3(%rip),%rax        # 140015f50 <.refptr.__native_startup_lock>
   14000127d:	48 89 45 b8          	mov    %rax,-0x48(%rbp)
   140001281:	48 c7 45 b0 00 00 00 	movq   $0x0,-0x50(%rbp)
   140001288:	00 
   140001289:	48 8b 55 b0          	mov    -0x50(%rbp),%rdx
   14000128d:	48 8b 45 b8          	mov    -0x48(%rbp),%rax
   140001291:	48 87 10             	xchg   %rdx,(%rax)
   140001294:	48 8b 05 05 4c 01 00 	mov    0x14c05(%rip),%rax        # 140015ea0 <.refptr.__dyn_tls_init_callback>
   14000129b:	48 8b 00             	mov    (%rax),%rax
   14000129e:	48 85 c0             	test   %rax,%rax
   1400012a1:	74 1c                	je     1400012bf <__tmainCRTStartup+0x16b>
   1400012a3:	48 8b 05 f6 4b 01 00 	mov    0x14bf6(%rip),%rax        # 140015ea0 <.refptr.__dyn_tls_init_callback>
   1400012aa:	48 8b 00             	mov    (%rax),%rax
   1400012ad:	41 b8 00 00 00 00    	mov    $0x0,%r8d
   1400012b3:	ba 02 00 00 00       	mov    $0x2,%edx
   1400012b8:	b9 00 00 00 00       	mov    $0x0,%ecx
   1400012bd:	ff d0                	call   *%rax
   1400012bf:	e8 f4 f6 00 00       	call   1400109b8 <_pei386_runtime_relocator>
   1400012c4:	48 8b 05 15 4d 01 00 	mov    0x14d15(%rip),%rax        # 140015fe0 <.refptr._gnu_exception_handler>
   1400012cb:	48 89 c1             	mov    %rax,%rcx
   1400012ce:	48 8b 05 bb 9f 01 00 	mov    0x19fbb(%rip),%rax        # 14001b290 <__imp_SetUnhandledExceptionFilter>
   1400012d5:	ff d0                	call   *%rax
   1400012d7:	48 8b 15 62 4c 01 00 	mov    0x14c62(%rip),%rdx        # 140015f40 <.refptr.__mingw_oldexcpt_handler>
   1400012de:	48 89 02             	mov    %rax,(%rdx)
   1400012e1:	48 8d 05 18 fd ff ff 	lea    -0x2e8(%rip),%rax        # 140001000 <__mingw_invalidParameterHandler>
   1400012e8:	48 89 c1             	mov    %rax,%rcx
   1400012eb:	e8 28 07 01 00       	call   140011a18 <_set_invalid_parameter_handler>
   1400012f0:	e8 bb ee 00 00       	call   1400101b0 <_fpreset>
   1400012f5:	8b 05 09 8d 01 00    	mov    0x18d09(%rip),%eax        # 14001a004 <argc>
   1400012fb:	48 8d 15 06 8d 01 00 	lea    0x18d06(%rip),%rdx        # 14001a008 <argv>
   140001302:	89 c1                	mov    %eax,%ecx
   140001304:	e8 73 01 00 00       	call   14000147c <duplicate_ppstrings>
   140001309:	e8 39 ec 00 00       	call   14000ff47 <__main>
   14000130e:	48 8b 05 bb 4b 01 00 	mov    0x14bbb(%rip),%rax        # 140015ed0 <.refptr.__imp___initenv>
   140001315:	48 8b 00             	mov    (%rax),%rax
   140001318:	48 8b 15 f1 8c 01 00 	mov    0x18cf1(%rip),%rdx        # 14001a010 <envp>
   14000131f:	48 89 10             	mov    %rdx,(%rax)
   140001322:	48 8b 0d e7 8c 01 00 	mov    0x18ce7(%rip),%rcx        # 14001a010 <envp>
   140001329:	48 8b 15 d8 8c 01 00 	mov    0x18cd8(%rip),%rdx        # 14001a008 <argv>
   140001330:	8b 05 ce 8c 01 00    	mov    0x18cce(%rip),%eax        # 14001a004 <argc>
   140001336:	49 89 c8             	mov    %rcx,%r8
   140001339:	89 c1                	mov    %eax,%ecx
   14000133b:	e8 34 bd 00 00       	call   14000d074 <main>
   140001340:	89 05 d6 8c 01 00    	mov    %eax,0x18cd6(%rip)        # 14001a01c <mainret>
   140001346:	8b 05 d4 8c 01 00    	mov    0x18cd4(%rip),%eax        # 14001a020 <managedapp>
   14000134c:	85 c0                	test   %eax,%eax
   14000134e:	75 0d                	jne    14000135d <__tmainCRTStartup+0x209>
   140001350:	8b 05 c6 8c 01 00    	mov    0x18cc6(%rip),%eax        # 14001a01c <mainret>
   140001356:	89 c1                	mov    %eax,%ecx
   140001358:	e8 db 06 01 00       	call   140011a38 <exit>
   14000135d:	8b 05 c1 8c 01 00    	mov    0x18cc1(%rip),%eax        # 14001a024 <has_cctor>
   140001363:	85 c0                	test   %eax,%eax
   140001365:	75 05                	jne    14000136c <__tmainCRTStartup+0x218>
   140001367:	e8 5c 06 01 00       	call   1400119c8 <_cexit>
   14000136c:	8b 05 aa 8c 01 00    	mov    0x18caa(%rip),%eax        # 14001a01c <mainret>
   140001372:	48 83 c4 70          	add    $0x70,%rsp
   140001376:	5d                   	pop    %rbp
   140001377:	c3                   	ret

0000000140001378 <check_managed_app>:
   140001378:	55                   	push   %rbp
   140001379:	48 89 e5             	mov    %rsp,%rbp
   14000137c:	48 83 ec 20          	sub    $0x20,%rsp
   140001380:	48 8b 05 79 4b 01 00 	mov    0x14b79(%rip),%rax        # 140015f00 <.refptr.__mingw_initltsdrot_force>
   140001387:	c7 00 01 00 00 00    	movl   $0x1,(%rax)
   14000138d:	48 8b 05 7c 4b 01 00 	mov    0x14b7c(%rip),%rax        # 140015f10 <.refptr.__mingw_initltsdyn_force>
   140001394:	c7 00 01 00 00 00    	movl   $0x1,(%rax)
   14000139a:	48 8b 05 7f 4b 01 00 	mov    0x14b7f(%rip),%rax        # 140015f20 <.refptr.__mingw_initltssuo_force>
   1400013a1:	c7 00 01 00 00 00    	movl   $0x1,(%rax)
   1400013a7:	48 8b 05 12 4b 01 00 	mov    0x14b12(%rip),%rax        # 140015ec0 <.refptr.__image_base__>
   1400013ae:	48 89 45 f8          	mov    %rax,-0x8(%rbp)
   1400013b2:	48 8b 45 f8          	mov    -0x8(%rbp),%rax
   1400013b6:	0f b7 00             	movzwl (%rax),%eax
   1400013b9:	66 3d 4d 5a          	cmp    $0x5a4d,%ax
   1400013bd:	74 0a                	je     1400013c9 <check_managed_app+0x51>
   1400013bf:	b8 00 00 00 00       	mov    $0x0,%eax
   1400013c4:	e9 ad 00 00 00       	jmp    140001476 <check_managed_app+0xfe>
   1400013c9:	48 8b 45 f8          	mov    -0x8(%rbp),%rax
   1400013cd:	8b 40 3c             	mov    0x3c(%rax),%eax
   1400013d0:	48 63 d0             	movslq %eax,%rdx
   1400013d3:	48 8b 45 f8          	mov    -0x8(%rbp),%rax
   1400013d7:	48 01 d0             	add    %rdx,%rax
   1400013da:	48 89 45 f0          	mov    %rax,-0x10(%rbp)
   1400013de:	48 8b 45 f0          	mov    -0x10(%rbp),%rax
   1400013e2:	8b 00                	mov    (%rax),%eax
   1400013e4:	3d 50 45 00 00       	cmp    $0x4550,%eax
   1400013e9:	74 0a                	je     1400013f5 <check_managed_app+0x7d>
   1400013eb:	b8 00 00 00 00       	mov    $0x0,%eax
   1400013f0:	e9 81 00 00 00       	jmp    140001476 <check_managed_app+0xfe>
   1400013f5:	48 8b 45 f0          	mov    -0x10(%rbp),%rax
   1400013f9:	48 83 c0 18          	add    $0x18,%rax
   1400013fd:	48 89 45 e8          	mov    %rax,-0x18(%rbp)
   140001401:	48 8b 45 e8          	mov    -0x18(%rbp),%rax
   140001405:	0f b7 00             	movzwl (%rax),%eax
   140001408:	0f b7 c0             	movzwl %ax,%eax
   14000140b:	3d 0b 01 00 00       	cmp    $0x10b,%eax
   140001410:	74 09                	je     14000141b <check_managed_app+0xa3>
   140001412:	3d 0b 02 00 00       	cmp    $0x20b,%eax
   140001417:	74 29                	je     140001442 <check_managed_app+0xca>
   140001419:	eb 56                	jmp    140001471 <check_managed_app+0xf9>
   14000141b:	48 8b 45 e8          	mov    -0x18(%rbp),%rax
   14000141f:	8b 40 5c             	mov    0x5c(%rax),%eax
   140001422:	83 f8 0e             	cmp    $0xe,%eax
   140001425:	77 07                	ja     14000142e <check_managed_app+0xb6>
   140001427:	b8 00 00 00 00       	mov    $0x0,%eax
   14000142c:	eb 48                	jmp    140001476 <check_managed_app+0xfe>
   14000142e:	48 8b 45 e8          	mov    -0x18(%rbp),%rax
   140001432:	8b 80 d0 00 00 00    	mov    0xd0(%rax),%eax
   140001438:	85 c0                	test   %eax,%eax
   14000143a:	0f 95 c0             	setne  %al
   14000143d:	0f b6 c0             	movzbl %al,%eax
   140001440:	eb 34                	jmp    140001476 <check_managed_app+0xfe>
   140001442:	48 8b 45 e8          	mov    -0x18(%rbp),%rax
   140001446:	48 89 45 e0          	mov    %rax,-0x20(%rbp)
   14000144a:	48 8b 45 e0          	mov    -0x20(%rbp),%rax
   14000144e:	8b 40 6c             	mov    0x6c(%rax),%eax
   140001451:	83 f8 0e             	cmp    $0xe,%eax
   140001454:	77 07                	ja     14000145d <check_managed_app+0xe5>
   140001456:	b8 00 00 00 00       	mov    $0x0,%eax
   14000145b:	eb 19                	jmp    140001476 <check_managed_app+0xfe>
   14000145d:	48 8b 45 e0          	mov    -0x20(%rbp),%rax
   140001461:	8b 80 e0 00 00 00    	mov    0xe0(%rax),%eax
   140001467:	85 c0                	test   %eax,%eax
   140001469:	0f 95 c0             	setne  %al
   14000146c:	0f b6 c0             	movzbl %al,%eax
   14000146f:	eb 05                	jmp    140001476 <check_managed_app+0xfe>
   140001471:	b8 00 00 00 00       	mov    $0x0,%eax
   140001476:	48 83 c4 20          	add    $0x20,%rsp
   14000147a:	5d                   	pop    %rbp
   14000147b:	c3                   	ret

000000014000147c <duplicate_ppstrings>:
   14000147c:	55                   	push   %rbp
   14000147d:	53                   	push   %rbx
   14000147e:	48 83 ec 48          	sub    $0x48,%rsp
   140001482:	48 8d 6c 24 40       	lea    0x40(%rsp),%rbp
   140001487:	89 4d 20             	mov    %ecx,0x20(%rbp)
   14000148a:	48 89 55 28          	mov    %rdx,0x28(%rbp)
   14000148e:	8b 45 20             	mov    0x20(%rbp),%eax
   140001491:	83 c0 01             	add    $0x1,%eax
   140001494:	48 98                	cltq
   140001496:	48 c1 e0 03          	shl    $0x3,%rax
   14000149a:	48 89 c1             	mov    %rax,%rcx
   14000149d:	e8 ce 05 01 00       	call   140011a70 <malloc>
   1400014a2:	48 89 45 f0          	mov    %rax,-0x10(%rbp)
   1400014a6:	48 8b 45 28          	mov    0x28(%rbp),%rax
   1400014aa:	48 8b 00             	mov    (%rax),%rax
   1400014ad:	48 89 45 e8          	mov    %rax,-0x18(%rbp)
   1400014b1:	c7 45 fc 00 00 00 00 	movl   $0x0,-0x4(%rbp)
   1400014b8:	e9 8c 00 00 00       	jmp    140001549 <duplicate_ppstrings+0xcd>
   1400014bd:	8b 45 fc             	mov    -0x4(%rbp),%eax
   1400014c0:	48 98                	cltq
   1400014c2:	48 8d 14 c5 00 00 00 	lea    0x0(,%rax,8),%rdx
   1400014c9:	00 
   1400014ca:	48 8b 45 e8          	mov    -0x18(%rbp),%rax
   1400014ce:	48 01 d0             	add    %rdx,%rax
   1400014d1:	48 8b 00             	mov    (%rax),%rax
   1400014d4:	48 89 c1             	mov    %rax,%rcx
   1400014d7:	e8 d4 05 01 00       	call   140011ab0 <strlen>
   1400014dc:	48 83 c0 01          	add    $0x1,%rax
   1400014e0:	48 89 45 e0          	mov    %rax,-0x20(%rbp)
   1400014e4:	8b 45 fc             	mov    -0x4(%rbp),%eax
   1400014e7:	48 98                	cltq
   1400014e9:	48 8d 14 c5 00 00 00 	lea    0x0(,%rax,8),%rdx
   1400014f0:	00 
   1400014f1:	48 8b 45 f0          	mov    -0x10(%rbp),%rax
   1400014f5:	48 8d 1c 02          	lea    (%rdx,%rax,1),%rbx
   1400014f9:	48 8b 45 e0          	mov    -0x20(%rbp),%rax
   1400014fd:	48 89 c1             	mov    %rax,%rcx
   140001500:	e8 6b 05 01 00       	call   140011a70 <malloc>
   140001505:	48 89 03             	mov    %rax,(%rbx)
   140001508:	8b 45 fc             	mov    -0x4(%rbp),%eax
   14000150b:	48 98                	cltq
   14000150d:	48 8d 14 c5 00 00 00 	lea    0x0(,%rax,8),%rdx
   140001514:	00 
   140001515:	48 8b 45 e8          	mov    -0x18(%rbp),%rax
   140001519:	48 01 d0             	add    %rdx,%rax
   14000151c:	48 8b 10             	mov    (%rax),%rdx
   14000151f:	8b 45 fc             	mov    -0x4(%rbp),%eax
   140001522:	48 98                	cltq
   140001524:	48 8d 0c c5 00 00 00 	lea    0x0(,%rax,8),%rcx
   14000152b:	00 
   14000152c:	48 8b 45 f0          	mov    -0x10(%rbp),%rax
   140001530:	48 01 c8             	add    %rcx,%rax
   140001533:	48 8b 00             	mov    (%rax),%rax
   140001536:	48 8b 4d e0          	mov    -0x20(%rbp),%rcx
   14000153a:	49 89 c8             	mov    %rcx,%r8
   14000153d:	48 89 c1             	mov    %rax,%rcx
   140001540:	e8 33 05 01 00       	call   140011a78 <memcpy>
   140001545:	83 45 fc 01          	addl   $0x1,-0x4(%rbp)
   140001549:	8b 45 fc             	mov    -0x4(%rbp),%eax
   14000154c:	3b 45 20             	cmp    0x20(%rbp),%eax
   14000154f:	0f 8c 68 ff ff ff    	jl     1400014bd <duplicate_ppstrings+0x41>
   140001555:	8b 45 fc             	mov    -0x4(%rbp),%eax
   140001558:	48 98                	cltq
   14000155a:	48 8d 14 c5 00 00 00 	lea    0x0(,%rax,8),%rdx
   140001561:	00 
   140001562:	48 8b 45 f0          	mov    -0x10(%rbp),%rax
   140001566:	48 01 d0             	add    %rdx,%rax
   140001569:	48 c7 00 00 00 00 00 	movq   $0x0,(%rax)
   140001570:	48 8b 45 28          	mov    0x28(%rbp),%rax
   140001574:	48 8b 55 f0          	mov    -0x10(%rbp),%rdx
   140001578:	48 89 10             	mov    %rdx,(%rax)
   14000157b:	90                   	nop
   14000157c:	48 83 c4 48          	add    $0x48,%rsp
   140001580:	5b                   	pop    %rbx
   140001581:	5d                   	pop    %rbp
   140001582:	c3                   	ret

0000000140001583 <atexit>:
   140001583:	55                   	push   %rbp
   140001584:	48 89 e5             	mov    %rsp,%rbp
   140001587:	48 83 ec 20          	sub    $0x20,%rsp
   14000158b:	48 89 4d 10          	mov    %rcx,0x10(%rbp)
   14000158f:	48 8b 45 10          	mov    0x10(%rbp),%rax
   140001593:	48 89 c1             	mov    %rax,%rcx
   140001596:	e8 55 02 01 00       	call   1400117f0 <_onexit>
   14000159b:	48 85 c0             	test   %rax,%rax
   14000159e:	74 07                	je     1400015a7 <atexit+0x24>
   1400015a0:	b8 00 00 00 00       	mov    $0x0,%eax
   1400015a5:	eb 05                	jmp    1400015ac <atexit+0x29>
   1400015a7:	b8 ff ff ff ff       	mov    $0xffffffff,%eax
   1400015ac:	48 83 c4 20          	add    $0x20,%rsp
   1400015b0:	5d                   	pop    %rbp
   1400015b1:	c3                   	ret
   1400015b2:	90                   	nop
   1400015b3:	90                   	nop
   1400015b4:	90                   	nop
   1400015b5:	90                   	nop
   1400015b6:	90                   	nop
   1400015b7:	90                   	nop
   1400015b8:	90                   	nop
   1400015b9:	90                   	nop
   1400015ba:	90                   	nop
   1400015bb:	90                   	nop
   1400015bc:	90                   	nop
   1400015bd:	90                   	nop
   1400015be:	90                   	nop
   1400015bf:	90                   	nop

00000001400015c0 <.weak.__register_frame_info.hmod_libgcc>:
   1400015c0:	c3                   	ret
   1400015c1:	66 66 2e 0f 1f 84 00 	data16 cs nopw 0x0(%rax,%rax,1)
   1400015c8:	00 00 00 00 
   1400015cc:	0f 1f 40 00          	nopl   0x0(%rax)

00000001400015d0 <.weak.__deregister_frame_info.hmod_libgcc>:
   1400015d0:	31 c0                	xor    %eax,%eax
   1400015d2:	c3                   	ret
   1400015d3:	66 66 2e 0f 1f 84 00 	data16 cs nopw 0x0(%rax,%rax,1)
   1400015da:	00 00 00 00 
   1400015de:	66 90                	xchg   %ax,%ax

00000001400015e0 <__gcc_register_frame>:
   1400015e0:	55                   	push   %rbp
   1400015e1:	57                   	push   %rdi
   1400015e2:	56                   	push   %rsi
   1400015e3:	53                   	push   %rbx
   1400015e4:	48 83 ec 28          	sub    $0x28,%rsp
   1400015e8:	48 8d 6c 24 20       	lea    0x20(%rsp),%rbp
   1400015ed:	48 8d 35 0c 1a 01 00 	lea    0x11a0c(%rip),%rsi        # 140013000 <.rdata>
   1400015f4:	48 89 f1             	mov    %rsi,%rcx
   1400015f7:	ff 15 6b 9c 01 00    	call   *0x19c6b(%rip)        # 14001b268 <__imp_GetModuleHandleA>
   1400015fd:	48 89 c3             	mov    %rax,%rbx
   140001600:	48 85 c0             	test   %rax,%rax
   140001603:	74 6b                	je     140001670 <__gcc_register_frame+0x90>
   140001605:	48 89 f1             	mov    %rsi,%rcx
   140001608:	ff 15 7a 9c 01 00    	call   *0x19c7a(%rip)        # 14001b288 <__imp_LoadLibraryA>
   14000160e:	48 8b 3d 5b 9c 01 00 	mov    0x19c5b(%rip),%rdi        # 14001b270 <__imp_GetProcAddress>
   140001615:	48 8d 15 f7 19 01 00 	lea    0x119f7(%rip),%rdx        # 140013013 <.rdata+0x13>
   14000161c:	48 89 d9             	mov    %rbx,%rcx
   14000161f:	48 89 05 1a 8a 01 00 	mov    %rax,0x18a1a(%rip)        # 14001a040 <hmod_libgcc>
   140001626:	ff d7                	call   *%rdi
   140001628:	48 8d 15 fa 19 01 00 	lea    0x119fa(%rip),%rdx        # 140013029 <.rdata+0x29>
   14000162f:	48 89 d9             	mov    %rbx,%rcx
   140001632:	48 89 c6             	mov    %rax,%rsi
   140001635:	ff d7                	call   *%rdi
   140001637:	48 89 05 c2 09 01 00 	mov    %rax,0x109c2(%rip)        # 140012000 <__data_start__>
   14000163e:	48 85 f6             	test   %rsi,%rsi
   140001641:	74 10                	je     140001653 <__gcc_register_frame+0x73>
   140001643:	48 8d 15 16 8a 01 00 	lea    0x18a16(%rip),%rdx        # 14001a060 <obj>
   14000164a:	48 8d 0d af 59 01 00 	lea    0x159af(%rip),%rcx        # 140017000 <__EH_FRAME_BEGIN__>
   140001651:	ff d6                	call   *%rsi
   140001653:	48 8d 0d 36 00 00 00 	lea    0x36(%rip),%rcx        # 140001690 <__gcc_deregister_frame>
   14000165a:	48 83 c4 28          	add    $0x28,%rsp
   14000165e:	5b                   	pop    %rbx
   14000165f:	5e                   	pop    %rsi
   140001660:	5f                   	pop    %rdi
   140001661:	5d                   	pop    %rbp
   140001662:	e9 1c ff ff ff       	jmp    140001583 <atexit>
   140001667:	66 0f 1f 84 00 00 00 	nopw   0x0(%rax,%rax,1)
   14000166e:	00 00 
   140001670:	48 8d 05 59 ff ff ff 	lea    -0xa7(%rip),%rax        # 1400015d0 <.weak.__deregister_frame_info.hmod_libgcc>
   140001677:	48 8d 35 42 ff ff ff 	lea    -0xbe(%rip),%rsi        # 1400015c0 <.weak.__register_frame_info.hmod_libgcc>
   14000167e:	48 89 05 7b 09 01 00 	mov    %rax,0x1097b(%rip)        # 140012000 <__data_start__>
   140001685:	eb bc                	jmp    140001643 <__gcc_register_frame+0x63>
   140001687:	66 0f 1f 84 00 00 00 	nopw   0x0(%rax,%rax,1)
   14000168e:	00 00 

0000000140001690 <__gcc_deregister_frame>:
   140001690:	55                   	push   %rbp
   140001691:	48 89 e5             	mov    %rsp,%rbp
   140001694:	48 83 ec 20          	sub    $0x20,%rsp
   140001698:	48 8b 05 61 09 01 00 	mov    0x10961(%rip),%rax        # 140012000 <__data_start__>
   14000169f:	48 85 c0             	test   %rax,%rax
   1400016a2:	74 09                	je     1400016ad <__gcc_deregister_frame+0x1d>
   1400016a4:	48 8d 0d 55 59 01 00 	lea    0x15955(%rip),%rcx        # 140017000 <__EH_FRAME_BEGIN__>
   1400016ab:	ff d0                	call   *%rax
   1400016ad:	48 8b 0d 8c 89 01 00 	mov    0x1898c(%rip),%rcx        # 14001a040 <hmod_libgcc>
   1400016b4:	48 85 c9             	test   %rcx,%rcx
   1400016b7:	74 0f                	je     1400016c8 <__gcc_deregister_frame+0x38>
   1400016b9:	48 83 c4 20          	add    $0x20,%rsp
   1400016bd:	5d                   	pop    %rbp
   1400016be:	48 ff 25 93 9b 01 00 	rex.W jmp *0x19b93(%rip)        # 14001b258 <__imp_FreeLibrary>
   1400016c5:	0f 1f 00             	nopl   (%rax)
   1400016c8:	48 83 c4 20          	add    $0x20,%rsp
   1400016cc:	5d                   	pop    %rbp
   1400016cd:	c3                   	ret
   1400016ce:	90                   	nop
   1400016cf:	90                   	nop

00000001400016d0 <is_pow_of_two>:
   1400016d0:	55                   	push   %rbp
   1400016d1:	48 89 e5             	mov    %rsp,%rbp
   1400016d4:	48 89 4d 10          	mov    %rcx,0x10(%rbp)
   1400016d8:	48 83 7d 10 00       	cmpq   $0x0,0x10(%rbp)
   1400016dd:	75 07                	jne    1400016e6 <is_pow_of_two+0x16>
   1400016df:	b8 00 00 00 00       	mov    $0x0,%eax
   1400016e4:	eb 12                	jmp    1400016f8 <is_pow_of_two+0x28>
   1400016e6:	48 8b 45 10          	mov    0x10(%rbp),%rax
   1400016ea:	48 83 e8 01          	sub    $0x1,%rax
   1400016ee:	48 23 45 10          	and    0x10(%rbp),%rax
   1400016f2:	48 85 c0             	test   %rax,%rax
   1400016f5:	0f 94 c0             	sete   %al
   1400016f8:	5d                   	pop    %rbp
   1400016f9:	c3                   	ret

00000001400016fa <_type__print_value>:
   1400016fa:	55                   	push   %rbp
   1400016fb:	53                   	push   %rbx
   1400016fc:	48 83 ec 78          	sub    $0x78,%rsp
   140001700:	48 8d 6c 24 70       	lea    0x70(%rsp),%rbp
   140001705:	48 89 4d 20          	mov    %rcx,0x20(%rbp)
   140001709:	48 89 55 28          	mov    %rdx,0x28(%rbp)
   14000170d:	44 89 45 30          	mov    %r8d,0x30(%rbp)
   140001711:	4c 89 4d 38          	mov    %r9,0x38(%rbp)
   140001715:	83 7d 30 00          	cmpl   $0x0,0x30(%rbp)
   140001719:	75 31                	jne    14000174c <_type__print_value+0x52>
   14000171b:	48 8b 45 20          	mov    0x20(%rbp),%rax
   14000171f:	8b 00                	mov    (%rax),%eax
   140001721:	85 c0                	test   %eax,%eax
   140001723:	0f 85 d7 04 00 00    	jne    140001c00 <_type__print_value+0x506>
   140001729:	48 8b 45 20          	mov    0x20(%rbp),%rax
   14000172d:	48 89 45 b0          	mov    %rax,-0x50(%rbp)
   140001731:	48 8b 45 b0          	mov    -0x50(%rbp),%rax
   140001735:	4c 8b 40 30          	mov    0x30(%rax),%r8
   140001739:	48 8b 55 38          	mov    0x38(%rbp),%rdx
   14000173d:	48 8b 45 28          	mov    0x28(%rbp),%rax
   140001741:	48 89 c1             	mov    %rax,%rcx
   140001744:	41 ff d0             	call   *%r8
   140001747:	e9 b4 04 00 00       	jmp    140001c00 <_type__print_value+0x506>
   14000174c:	48 8b 5d 38          	mov    0x38(%rbp),%rbx
   140001750:	48 8b 45 20          	mov    0x20(%rbp),%rax
   140001754:	48 89 c1             	mov    %rax,%rcx
   140001757:	e8 fd 09 00 00       	call   140002159 <type__alignment>
   14000175c:	48 89 c1             	mov    %rax,%rcx
   14000175f:	48 89 d8             	mov    %rbx,%rax
   140001762:	ba 00 00 00 00       	mov    $0x0,%edx
   140001767:	48 f7 f1             	div    %rcx
   14000176a:	48 89 d1             	mov    %rdx,%rcx
   14000176d:	48 89 c8             	mov    %rcx,%rax
   140001770:	48 85 c0             	test   %rax,%rax
   140001773:	74 4c                	je     1400017c1 <_type__print_value+0xc7>
   140001775:	48 8b 5d 38          	mov    0x38(%rbp),%rbx
   140001779:	48 8b 45 20          	mov    0x20(%rbp),%rax
   14000177d:	48 89 c1             	mov    %rax,%rcx
   140001780:	e8 82 14 00 00       	call   140002c07 <type__max_alignment>
   140001785:	48 89 c1             	mov    %rax,%rcx
   140001788:	48 89 d8             	mov    %rbx,%rax
   14000178b:	ba 00 00 00 00       	mov    $0x0,%edx
   140001790:	48 f7 f1             	div    %rcx
   140001793:	48 89 d1             	mov    %rdx,%rcx
   140001796:	48 89 c8             	mov    %rcx,%rax
   140001799:	48 85 c0             	test   %rax,%rax
   14000179c:	74 23                	je     1400017c1 <_type__print_value+0xc7>
   14000179e:	41 b8 4a 00 00 00    	mov    $0x4a,%r8d
   1400017a4:	48 8d 05 a5 18 01 00 	lea    0x118a5(%rip),%rax        # 140013050 <.rdata>
   1400017ab:	48 89 c2             	mov    %rax,%rdx
   1400017ae:	48 8d 05 a3 18 01 00 	lea    0x118a3(%rip),%rax        # 140013058 <.rdata+0x8>
   1400017b5:	48 89 c1             	mov    %rax,%rcx
   1400017b8:	48 8b 05 81 9b 01 00 	mov    0x19b81(%rip),%rax        # 14001b340 <__imp__assert>
   1400017bf:	ff d0                	call   *%rax
   1400017c1:	48 8b 45 20          	mov    0x20(%rbp),%rax
   1400017c5:	8b 00                	mov    (%rax),%eax
   1400017c7:	83 f8 05             	cmp    $0x5,%eax
   1400017ca:	0f 87 0d 04 00 00    	ja     140001bdd <_type__print_value+0x4e3>
   1400017d0:	89 c0                	mov    %eax,%eax
   1400017d2:	48 8d 14 85 00 00 00 	lea    0x0(,%rax,4),%rdx
   1400017d9:	00 
   1400017da:	48 8d 05 93 19 01 00 	lea    0x11993(%rip),%rax        # 140013174 <.rdata+0x124>
   1400017e1:	8b 04 02             	mov    (%rdx,%rax,1),%eax
   1400017e4:	48 98                	cltq
   1400017e6:	48 8d 15 87 19 01 00 	lea    0x11987(%rip),%rdx        # 140013174 <.rdata+0x124>
   1400017ed:	48 01 d0             	add    %rdx,%rax
   1400017f0:	ff e0                	jmp    *%rax
   1400017f2:	48 8b 45 20          	mov    0x20(%rbp),%rax
   1400017f6:	48 89 45 b8          	mov    %rax,-0x48(%rbp)
   1400017fa:	48 8b 45 b8          	mov    -0x48(%rbp),%rax
   1400017fe:	4c 8b 40 30          	mov    0x30(%rax),%r8
   140001802:	48 8b 55 38          	mov    0x38(%rbp),%rdx
   140001806:	48 8b 45 28          	mov    0x28(%rbp),%rax
   14000180a:	48 89 c1             	mov    %rax,%rcx
   14000180d:	41 ff d0             	call   *%r8
   140001810:	e9 ec 03 00 00       	jmp    140001c01 <_type__print_value+0x507>
   140001815:	48 8b 45 20          	mov    0x20(%rbp),%rax
   140001819:	48 89 45 c0          	mov    %rax,-0x40(%rbp)
   14000181d:	48 8b 45 28          	mov    0x28(%rbp),%rax
   140001821:	48 89 c2             	mov    %rax,%rdx
   140001824:	b9 7b 00 00 00       	mov    $0x7b,%ecx
   140001829:	e8 22 02 01 00       	call   140011a50 <fputc>
   14000182e:	c7 45 fc 00 00 00 00 	movl   $0x0,-0x4(%rbp)
   140001835:	e9 4a 01 00 00       	jmp    140001984 <_type__print_value+0x28a>
   14000183a:	48 8b 5d 38          	mov    0x38(%rbp),%rbx
   14000183e:	48 8b 45 c0          	mov    -0x40(%rbp),%rax
   140001842:	48 8b 48 30          	mov    0x30(%rax),%rcx
   140001846:	8b 55 fc             	mov    -0x4(%rbp),%edx
   140001849:	48 89 d0             	mov    %rdx,%rax
   14000184c:	48 01 c0             	add    %rax,%rax
   14000184f:	48 01 d0             	add    %rdx,%rax
   140001852:	48 c1 e0 03          	shl    $0x3,%rax
   140001856:	48 01 c8             	add    %rcx,%rax
   140001859:	48 8b 40 08          	mov    0x8(%rax),%rax
   14000185d:	48 89 c1             	mov    %rax,%rcx
   140001860:	e8 f4 08 00 00       	call   140002159 <type__alignment>
   140001865:	48 89 c1             	mov    %rax,%rcx
   140001868:	48 89 d8             	mov    %rbx,%rax
   14000186b:	ba 00 00 00 00       	mov    $0x0,%edx
   140001870:	48 f7 f1             	div    %rcx
   140001873:	48 89 d1             	mov    %rdx,%rcx
   140001876:	48 89 c8             	mov    %rcx,%rax
   140001879:	48 85 c0             	test   %rax,%rax
   14000187c:	74 4c                	je     1400018ca <_type__print_value+0x1d0>
   14000187e:	48 8b 5d 38          	mov    0x38(%rbp),%rbx
   140001882:	48 8b 45 20          	mov    0x20(%rbp),%rax
   140001886:	48 89 c1             	mov    %rax,%rcx
   140001889:	e8 79 13 00 00       	call   140002c07 <type__max_alignment>
   14000188e:	48 89 c1             	mov    %rax,%rcx
   140001891:	48 89 d8             	mov    %rbx,%rax
   140001894:	ba 00 00 00 00       	mov    $0x0,%edx
   140001899:	48 f7 f1             	div    %rcx
   14000189c:	48 89 d1             	mov    %rdx,%rcx
   14000189f:	48 89 c8             	mov    %rcx,%rax
   1400018a2:	48 85 c0             	test   %rax,%rax
   1400018a5:	74 23                	je     1400018ca <_type__print_value+0x1d0>
   1400018a7:	41 b8 58 00 00 00    	mov    $0x58,%r8d
   1400018ad:	48 8d 05 9c 17 01 00 	lea    0x1179c(%rip),%rax        # 140013050 <.rdata>
   1400018b4:	48 89 c2             	mov    %rax,%rdx
   1400018b7:	48 8d 05 0a 18 01 00 	lea    0x1180a(%rip),%rax        # 1400130c8 <.rdata+0x78>
   1400018be:	48 89 c1             	mov    %rax,%rcx
   1400018c1:	48 8b 05 78 9a 01 00 	mov    0x19a78(%rip),%rax        # 14001b340 <__imp__assert>
   1400018c8:	ff d0                	call   *%rax
   1400018ca:	8b 45 30             	mov    0x30(%rbp),%eax
   1400018cd:	44 8d 40 ff          	lea    -0x1(%rax),%r8d
   1400018d1:	48 8b 45 c0          	mov    -0x40(%rbp),%rax
   1400018d5:	48 8b 48 30          	mov    0x30(%rax),%rcx
   1400018d9:	8b 55 fc             	mov    -0x4(%rbp),%edx
   1400018dc:	48 89 d0             	mov    %rdx,%rax
   1400018df:	48 01 c0             	add    %rax,%rax
   1400018e2:	48 01 d0             	add    %rdx,%rax
   1400018e5:	48 c1 e0 03          	shl    $0x3,%rax
   1400018e9:	48 01 c8             	add    %rcx,%rax
   1400018ec:	48 8b 40 08          	mov    0x8(%rax),%rax
   1400018f0:	48 8b 4d 38          	mov    0x38(%rbp),%rcx
   1400018f4:	48 8b 55 28          	mov    0x28(%rbp),%rdx
   1400018f8:	49 89 c9             	mov    %rcx,%r9
   1400018fb:	48 89 c1             	mov    %rax,%rcx
   1400018fe:	e8 f7 fd ff ff       	call   1400016fa <_type__print_value>
   140001903:	48 8b 45 c0          	mov    -0x40(%rbp),%rax
   140001907:	8b 40 3c             	mov    0x3c(%rax),%eax
   14000190a:	83 e8 01             	sub    $0x1,%eax
   14000190d:	39 45 fc             	cmp    %eax,-0x4(%rbp)
   140001910:	73 6e                	jae    140001980 <_type__print_value+0x286>
   140001912:	48 8b 45 28          	mov    0x28(%rbp),%rax
   140001916:	49 89 c1             	mov    %rax,%r9
   140001919:	41 b8 02 00 00 00    	mov    $0x2,%r8d
   14000191f:	ba 01 00 00 00       	mov    $0x1,%edx
   140001924:	48 8d 05 2b 18 01 00 	lea    0x1182b(%rip),%rax        # 140013156 <.rdata+0x106>
   14000192b:	48 89 c1             	mov    %rax,%rcx
   14000192e:	e8 35 01 01 00       	call   140011a68 <fwrite>
   140001933:	48 8b 45 c0          	mov    -0x40(%rbp),%rax
   140001937:	48 8b 50 30          	mov    0x30(%rax),%rdx
   14000193b:	8b 45 fc             	mov    -0x4(%rbp),%eax
   14000193e:	83 c0 01             	add    $0x1,%eax
   140001941:	89 c1                	mov    %eax,%ecx
   140001943:	48 89 c8             	mov    %rcx,%rax
   140001946:	48 01 c0             	add    %rax,%rax
   140001949:	48 01 c8             	add    %rcx,%rax
   14000194c:	48 c1 e0 03          	shl    $0x3,%rax
   140001950:	48 01 d0             	add    %rdx,%rax
   140001953:	48 8b 48 10          	mov    0x10(%rax),%rcx
   140001957:	48 8b 45 c0          	mov    -0x40(%rbp),%rax
   14000195b:	4c 8b 40 30          	mov    0x30(%rax),%r8
   14000195f:	8b 55 fc             	mov    -0x4(%rbp),%edx
   140001962:	48 89 d0             	mov    %rdx,%rax
   140001965:	48 01 c0             	add    %rax,%rax
   140001968:	48 01 d0             	add    %rdx,%rax
   14000196b:	48 c1 e0 03          	shl    $0x3,%rax
   14000196f:	4c 01 c0             	add    %r8,%rax
   140001972:	48 8b 40 10          	mov    0x10(%rax),%rax
   140001976:	48 29 c1             	sub    %rax,%rcx
   140001979:	48 89 ca             	mov    %rcx,%rdx
   14000197c:	48 01 55 38          	add    %rdx,0x38(%rbp)
   140001980:	83 45 fc 01          	addl   $0x1,-0x4(%rbp)
   140001984:	48 8b 45 c0          	mov    -0x40(%rbp),%rax
   140001988:	8b 40 3c             	mov    0x3c(%rax),%eax
   14000198b:	39 45 fc             	cmp    %eax,-0x4(%rbp)
   14000198e:	0f 82 a6 fe ff ff    	jb     14000183a <_type__print_value+0x140>
   140001994:	48 8b 45 28          	mov    0x28(%rbp),%rax
   140001998:	48 89 c2             	mov    %rax,%rdx
   14000199b:	b9 7d 00 00 00       	mov    $0x7d,%ecx
   1400019a0:	e8 ab 00 01 00       	call   140011a50 <fputc>
   1400019a5:	e9 57 02 00 00       	jmp    140001c01 <_type__print_value+0x507>
   1400019aa:	48 8b 45 20          	mov    0x20(%rbp),%rax
   1400019ae:	48 89 45 c8          	mov    %rax,-0x38(%rbp)
   1400019b2:	48 8b 45 28          	mov    0x28(%rbp),%rax
   1400019b6:	48 89 c2             	mov    %rax,%rdx
   1400019b9:	b9 7c 00 00 00       	mov    $0x7c,%ecx
   1400019be:	e8 8d 00 01 00       	call   140011a50 <fputc>
   1400019c3:	c7 45 f8 00 00 00 00 	movl   $0x0,-0x8(%rbp)
   1400019ca:	eb 6d                	jmp    140001a39 <_type__print_value+0x33f>
   1400019cc:	8b 45 30             	mov    0x30(%rbp),%eax
   1400019cf:	44 8d 40 ff          	lea    -0x1(%rax),%r8d
   1400019d3:	48 8b 45 c8          	mov    -0x38(%rbp),%rax
   1400019d7:	48 8b 48 40          	mov    0x40(%rax),%rcx
   1400019db:	8b 55 f8             	mov    -0x8(%rbp),%edx
   1400019de:	48 89 d0             	mov    %rdx,%rax
   1400019e1:	48 01 c0             	add    %rax,%rax
   1400019e4:	48 01 d0             	add    %rdx,%rax
   1400019e7:	48 c1 e0 03          	shl    $0x3,%rax
   1400019eb:	48 01 c8             	add    %rcx,%rax
   1400019ee:	48 8b 40 08          	mov    0x8(%rax),%rax
   1400019f2:	48 8b 4d 38          	mov    0x38(%rbp),%rcx
   1400019f6:	48 8b 55 28          	mov    0x28(%rbp),%rdx
   1400019fa:	49 89 c9             	mov    %rcx,%r9
   1400019fd:	48 89 c1             	mov    %rax,%rcx
   140001a00:	e8 f5 fc ff ff       	call   1400016fa <_type__print_value>
   140001a05:	48 8b 45 c8          	mov    -0x38(%rbp),%rax
   140001a09:	8b 40 4c             	mov    0x4c(%rax),%eax
   140001a0c:	83 e8 01             	sub    $0x1,%eax
   140001a0f:	39 45 f8             	cmp    %eax,-0x8(%rbp)
   140001a12:	73 21                	jae    140001a35 <_type__print_value+0x33b>
   140001a14:	48 8b 45 28          	mov    0x28(%rbp),%rax
   140001a18:	49 89 c1             	mov    %rax,%r9
   140001a1b:	41 b8 02 00 00 00    	mov    $0x2,%r8d
   140001a21:	ba 01 00 00 00       	mov    $0x1,%edx
   140001a26:	48 8d 05 29 17 01 00 	lea    0x11729(%rip),%rax        # 140013156 <.rdata+0x106>
   140001a2d:	48 89 c1             	mov    %rax,%rcx
   140001a30:	e8 33 00 01 00       	call   140011a68 <fwrite>
   140001a35:	83 45 f8 01          	addl   $0x1,-0x8(%rbp)
   140001a39:	48 8b 45 c8          	mov    -0x38(%rbp),%rax
   140001a3d:	8b 40 4c             	mov    0x4c(%rax),%eax
   140001a40:	39 45 f8             	cmp    %eax,-0x8(%rbp)
   140001a43:	72 87                	jb     1400019cc <_type__print_value+0x2d2>
   140001a45:	48 8b 45 28          	mov    0x28(%rbp),%rax
   140001a49:	49 89 c1             	mov    %rax,%r9
   140001a4c:	41 b8 05 00 00 00    	mov    $0x5,%r8d
   140001a52:	ba 01 00 00 00       	mov    $0x1,%edx
   140001a57:	48 8d 05 fb 16 01 00 	lea    0x116fb(%rip),%rax        # 140013159 <.rdata+0x109>
   140001a5e:	48 89 c1             	mov    %rax,%rcx
   140001a61:	e8 02 00 01 00       	call   140011a68 <fwrite>
   140001a66:	8b 45 30             	mov    0x30(%rbp),%eax
   140001a69:	44 8d 40 ff          	lea    -0x1(%rax),%r8d
   140001a6d:	48 8b 45 c8          	mov    -0x38(%rbp),%rax
   140001a71:	48 8b 40 38          	mov    0x38(%rax),%rax
   140001a75:	48 8b 40 08          	mov    0x8(%rax),%rax
   140001a79:	48 8b 4d 38          	mov    0x38(%rbp),%rcx
   140001a7d:	48 8b 55 28          	mov    0x28(%rbp),%rdx
   140001a81:	49 89 c9             	mov    %rcx,%r9
   140001a84:	48 89 c1             	mov    %rax,%rcx
   140001a87:	e8 6e fc ff ff       	call   1400016fa <_type__print_value>
   140001a8c:	48 8b 45 28          	mov    0x28(%rbp),%rax
   140001a90:	48 89 c2             	mov    %rax,%rdx
   140001a93:	b9 7c 00 00 00       	mov    $0x7c,%ecx
   140001a98:	e8 b3 ff 00 00       	call   140011a50 <fputc>
   140001a9d:	e9 5f 01 00 00       	jmp    140001c01 <_type__print_value+0x507>
   140001aa2:	48 8b 45 20          	mov    0x20(%rbp),%rax
   140001aa6:	48 89 45 d0          	mov    %rax,-0x30(%rbp)
   140001aaa:	48 8b 45 d0          	mov    -0x30(%rbp),%rax
   140001aae:	48 8b 50 38          	mov    0x38(%rax),%rdx
   140001ab2:	48 8b 45 28          	mov    0x28(%rbp),%rax
   140001ab6:	49 89 d0             	mov    %rdx,%r8
   140001ab9:	48 8d 15 9f 16 01 00 	lea    0x1169f(%rip),%rdx        # 14001315f <.rdata+0x10f>
   140001ac0:	48 89 c1             	mov    %rax,%rcx
   140001ac3:	e8 c8 fb 00 00       	call   140011690 <fprintf>
   140001ac8:	48 c7 45 f0 00 00 00 	movq   $0x0,-0x10(%rbp)
   140001acf:	00 
   140001ad0:	48 c7 45 e8 00 00 00 	movq   $0x0,-0x18(%rbp)
   140001ad7:	00 
   140001ad8:	eb 78                	jmp    140001b52 <_type__print_value+0x458>
   140001ada:	48 8b 55 38          	mov    0x38(%rbp),%rdx
   140001ade:	48 8b 45 f0          	mov    -0x10(%rbp),%rax
   140001ae2:	4c 8d 04 02          	lea    (%rdx,%rax,1),%r8
   140001ae6:	8b 45 30             	mov    0x30(%rbp),%eax
   140001ae9:	8d 48 ff             	lea    -0x1(%rax),%ecx
   140001aec:	48 8b 45 d0          	mov    -0x30(%rbp),%rax
   140001af0:	48 8b 40 30          	mov    0x30(%rax),%rax
   140001af4:	48 8b 55 28          	mov    0x28(%rbp),%rdx
   140001af8:	4d 89 c1             	mov    %r8,%r9
   140001afb:	41 89 c8             	mov    %ecx,%r8d
   140001afe:	48 89 c1             	mov    %rax,%rcx
   140001b01:	e8 f4 fb ff ff       	call   1400016fa <_type__print_value>
   140001b06:	48 8b 45 d0          	mov    -0x30(%rbp),%rax
   140001b0a:	48 8b 40 30          	mov    0x30(%rax),%rax
   140001b0e:	48 89 c1             	mov    %rax,%rcx
   140001b11:	e8 55 06 00 00       	call   14000216b <type__size>
   140001b16:	48 01 45 f0          	add    %rax,-0x10(%rbp)
   140001b1a:	48 8b 45 d0          	mov    -0x30(%rbp),%rax
   140001b1e:	48 8b 40 38          	mov    0x38(%rax),%rax
   140001b22:	48 83 e8 01          	sub    $0x1,%rax
   140001b26:	48 39 45 e8          	cmp    %rax,-0x18(%rbp)
   140001b2a:	73 21                	jae    140001b4d <_type__print_value+0x453>
   140001b2c:	48 8b 45 28          	mov    0x28(%rbp),%rax
   140001b30:	49 89 c1             	mov    %rax,%r9
   140001b33:	41 b8 02 00 00 00    	mov    $0x2,%r8d
   140001b39:	ba 01 00 00 00       	mov    $0x1,%edx
   140001b3e:	48 8d 05 11 16 01 00 	lea    0x11611(%rip),%rax        # 140013156 <.rdata+0x106>
   140001b45:	48 89 c1             	mov    %rax,%rcx
   140001b48:	e8 1b ff 00 00       	call   140011a68 <fwrite>
   140001b4d:	48 83 45 e8 01       	addq   $0x1,-0x18(%rbp)
   140001b52:	48 8b 45 d0          	mov    -0x30(%rbp),%rax
   140001b56:	48 8b 40 38          	mov    0x38(%rax),%rax
   140001b5a:	48 39 45 e8          	cmp    %rax,-0x18(%rbp)
   140001b5e:	0f 82 76 ff ff ff    	jb     140001ada <_type__print_value+0x3e0>
   140001b64:	48 8b 45 28          	mov    0x28(%rbp),%rax
   140001b68:	48 89 c2             	mov    %rax,%rdx
   140001b6b:	b9 5d 00 00 00       	mov    $0x5d,%ecx
   140001b70:	e8 db fe 00 00       	call   140011a50 <fputc>
   140001b75:	e9 87 00 00 00       	jmp    140001c01 <_type__print_value+0x507>
   140001b7a:	48 8b 45 20          	mov    0x20(%rbp),%rax
   140001b7e:	48 89 45 d8          	mov    %rax,-0x28(%rbp)
   140001b82:	8b 45 30             	mov    0x30(%rbp),%eax
   140001b85:	44 8d 40 ff          	lea    -0x1(%rax),%r8d
   140001b89:	48 8b 45 d8          	mov    -0x28(%rbp),%rax
   140001b8d:	48 8b 40 30          	mov    0x30(%rax),%rax
   140001b91:	48 8b 4d 38          	mov    0x38(%rbp),%rcx
   140001b95:	48 8b 55 28          	mov    0x28(%rbp),%rdx
   140001b99:	49 89 c9             	mov    %rcx,%r9
   140001b9c:	48 89 c1             	mov    %rax,%rcx
   140001b9f:	e8 56 fb ff ff       	call   1400016fa <_type__print_value>
   140001ba4:	48 8b 45 28          	mov    0x28(%rbp),%rax
   140001ba8:	48 89 c2             	mov    %rax,%rdx
   140001bab:	b9 2a 00 00 00       	mov    $0x2a,%ecx
   140001bb0:	e8 9b fe 00 00       	call   140011a50 <fputc>
   140001bb5:	eb 4a                	jmp    140001c01 <_type__print_value+0x507>
   140001bb7:	48 8b 45 20          	mov    0x20(%rbp),%rax
   140001bbb:	48 89 45 e0          	mov    %rax,-0x20(%rbp)
   140001bbf:	48 8b 45 38          	mov    0x38(%rbp),%rax
   140001bc3:	8b 10                	mov    (%rax),%edx
   140001bc5:	48 8b 45 28          	mov    0x28(%rbp),%rax
   140001bc9:	41 89 d0             	mov    %edx,%r8d
   140001bcc:	48 8d 15 94 15 01 00 	lea    0x11594(%rip),%rdx        # 140013167 <.rdata+0x117>
   140001bd3:	48 89 c1             	mov    %rax,%rcx
   140001bd6:	e8 b5 fa 00 00       	call   140011690 <fprintf>
   140001bdb:	eb 24                	jmp    140001c01 <_type__print_value+0x507>
   140001bdd:	41 b8 88 00 00 00    	mov    $0x88,%r8d
   140001be3:	48 8d 05 66 14 01 00 	lea    0x11466(%rip),%rax        # 140013050 <.rdata>
   140001bea:	48 89 c2             	mov    %rax,%rdx
   140001bed:	48 8d 05 78 15 01 00 	lea    0x11578(%rip),%rax        # 14001316c <.rdata+0x11c>
   140001bf4:	48 89 c1             	mov    %rax,%rcx
   140001bf7:	48 8b 05 42 97 01 00 	mov    0x19742(%rip),%rax        # 14001b340 <__imp__assert>
   140001bfe:	ff d0                	call   *%rax
   140001c00:	90                   	nop
   140001c01:	48 83 c4 78          	add    $0x78,%rsp
   140001c05:	5b                   	pop    %rbx
   140001c06:	5d                   	pop    %rbp
   140001c07:	c3                   	ret

0000000140001c08 <_type__create_hash>:
   140001c08:	55                   	push   %rbp
   140001c09:	48 89 e5             	mov    %rsp,%rbp
   140001c0c:	48 83 ec 10          	sub    $0x10,%rsp
   140001c10:	48 89 4d 10          	mov    %rcx,0x10(%rbp)
   140001c14:	48 c7 45 f8 00 00 00 	movq   $0x0,-0x8(%rbp)
   140001c1b:	00 
   140001c1c:	eb 17                	jmp    140001c35 <_type__create_hash+0x2d>
   140001c1e:	48 8b 45 10          	mov    0x10(%rbp),%rax
   140001c22:	48 8d 50 01          	lea    0x1(%rax),%rdx
   140001c26:	48 89 55 10          	mov    %rdx,0x10(%rbp)
   140001c2a:	0f b6 00             	movzbl (%rax),%eax
   140001c2d:	48 0f be c0          	movsbq %al,%rax
   140001c31:	48 01 45 f8          	add    %rax,-0x8(%rbp)
   140001c35:	48 8b 45 10          	mov    0x10(%rbp),%rax
   140001c39:	0f b6 00             	movzbl (%rax),%eax
   140001c3c:	84 c0                	test   %al,%al
   140001c3e:	75 de                	jne    140001c1e <_type__create_hash+0x16>
   140001c40:	48 8b 45 f8          	mov    -0x8(%rbp),%rax
   140001c44:	48 83 c4 10          	add    $0x10,%rsp
   140001c48:	5d                   	pop    %rbp
   140001c49:	c3                   	ret

0000000140001c4a <_type__create>:
   140001c4a:	55                   	push   %rbp
   140001c4b:	48 89 e5             	mov    %rsp,%rbp
   140001c4e:	48 83 ec 30          	sub    $0x30,%rsp
   140001c52:	48 89 4d 10          	mov    %rcx,0x10(%rbp)
   140001c56:	48 89 55 18          	mov    %rdx,0x18(%rbp)
   140001c5a:	48 8b 45 18          	mov    0x18(%rbp),%rax
   140001c5e:	48 89 c2             	mov    %rax,%rdx
   140001c61:	b9 01 00 00 00       	mov    $0x1,%ecx
   140001c66:	e8 c5 fd 00 00       	call   140011a30 <calloc>
   140001c6b:	48 89 45 f8          	mov    %rax,-0x8(%rbp)
   140001c6f:	48 8b 45 f8          	mov    -0x8(%rbp),%rax
   140001c73:	48 8b 55 10          	mov    0x10(%rbp),%rdx
   140001c77:	48 89 50 08          	mov    %rdx,0x8(%rax)
   140001c7b:	48 8b 45 10          	mov    0x10(%rbp),%rax
   140001c7f:	48 89 c1             	mov    %rax,%rcx
   140001c82:	e8 81 ff ff ff       	call   140001c08 <_type__create_hash>
   140001c87:	48 8b 55 f8          	mov    -0x8(%rbp),%rdx
   140001c8b:	48 89 42 28          	mov    %rax,0x28(%rdx)
   140001c8f:	48 8b 45 f8          	mov    -0x8(%rbp),%rax
   140001c93:	48 83 c4 30          	add    $0x30,%rsp
   140001c97:	5d                   	pop    %rbp
   140001c98:	c3                   	ret

0000000140001c99 <_type_struct__update_member>:
   140001c99:	55                   	push   %rbp
   140001c9a:	48 89 e5             	mov    %rsp,%rbp
   140001c9d:	48 83 ec 50          	sub    $0x50,%rsp
   140001ca1:	48 89 4d 10          	mov    %rcx,0x10(%rbp)
   140001ca5:	48 89 55 18          	mov    %rdx,0x18(%rbp)
   140001ca9:	48 8b 45 10          	mov    0x10(%rbp),%rax
   140001cad:	8b 00                	mov    (%rax),%eax
   140001caf:	83 f8 02             	cmp    $0x2,%eax
   140001cb2:	74 2e                	je     140001ce2 <_type_struct__update_member+0x49>
   140001cb4:	48 8b 45 10          	mov    0x10(%rbp),%rax
   140001cb8:	8b 00                	mov    (%rax),%eax
   140001cba:	83 f8 01             	cmp    $0x1,%eax
   140001cbd:	74 23                	je     140001ce2 <_type_struct__update_member+0x49>
   140001cbf:	41 b8 a1 00 00 00    	mov    $0xa1,%r8d
   140001cc5:	48 8d 05 84 13 01 00 	lea    0x11384(%rip),%rax        # 140013050 <.rdata>
   140001ccc:	48 89 c2             	mov    %rax,%rdx
   140001ccf:	48 8d 05 96 14 01 00 	lea    0x11496(%rip),%rax        # 14001316c <.rdata+0x11c>
   140001cd6:	48 89 c1             	mov    %rax,%rcx
   140001cd9:	48 8b 05 60 96 01 00 	mov    0x19660(%rip),%rax        # 14001b340 <__imp__assert>
   140001ce0:	ff d0                	call   *%rax
   140001ce2:	48 8b 45 10          	mov    0x10(%rbp),%rax
   140001ce6:	48 8b 50 10          	mov    0x10(%rax),%rdx
   140001cea:	48 8b 45 18          	mov    0x18(%rbp),%rax
   140001cee:	48 8b 40 08          	mov    0x8(%rax),%rax
   140001cf2:	48 8b 40 10          	mov    0x10(%rax),%rax
   140001cf6:	48 39 c2             	cmp    %rax,%rdx
   140001cf9:	48 0f 42 d0          	cmovb  %rax,%rdx
   140001cfd:	48 8b 45 10          	mov    0x10(%rbp),%rax
   140001d01:	48 8b 40 18          	mov    0x18(%rax),%rax
   140001d05:	48 39 c2             	cmp    %rax,%rdx
   140001d08:	48 0f 47 d0          	cmova  %rax,%rdx
   140001d0c:	48 8b 45 10          	mov    0x10(%rbp),%rax
   140001d10:	48 89 50 10          	mov    %rdx,0x10(%rax)
   140001d14:	48 8b 45 10          	mov    0x10(%rbp),%rax
   140001d18:	48 8b 40 20          	mov    0x20(%rax),%rax
   140001d1c:	48 89 45 f0          	mov    %rax,-0x10(%rbp)
   140001d20:	48 c7 45 f8 00 00 00 	movq   $0x0,-0x8(%rbp)
   140001d27:	00 
   140001d28:	48 8b 45 18          	mov    0x18(%rbp),%rax
   140001d2c:	48 8b 40 08          	mov    0x8(%rax),%rax
   140001d30:	48 8b 48 10          	mov    0x10(%rax),%rcx
   140001d34:	48 8b 45 f0          	mov    -0x10(%rbp),%rax
   140001d38:	ba 00 00 00 00       	mov    $0x0,%edx
   140001d3d:	48 f7 f1             	div    %rcx
   140001d40:	48 89 55 e8          	mov    %rdx,-0x18(%rbp)
   140001d44:	48 83 7d e8 00       	cmpq   $0x0,-0x18(%rbp)
   140001d49:	74 1c                	je     140001d67 <_type_struct__update_member+0xce>
   140001d4b:	48 8b 45 18          	mov    0x18(%rbp),%rax
   140001d4f:	48 8b 40 08          	mov    0x8(%rax),%rax
   140001d53:	48 8b 40 10          	mov    0x10(%rax),%rax
   140001d57:	48 2b 45 e8          	sub    -0x18(%rbp),%rax
   140001d5b:	48 89 45 e0          	mov    %rax,-0x20(%rbp)
   140001d5f:	48 8b 45 e0          	mov    -0x20(%rbp),%rax
   140001d63:	48 89 45 f8          	mov    %rax,-0x8(%rbp)
   140001d67:	48 8b 45 10          	mov    0x10(%rbp),%rax
   140001d6b:	48 8b 48 10          	mov    0x10(%rax),%rcx
   140001d6f:	48 8b 45 f0          	mov    -0x10(%rbp),%rax
   140001d73:	ba 00 00 00 00       	mov    $0x0,%edx
   140001d78:	48 f7 f1             	div    %rcx
   140001d7b:	48 89 55 e8          	mov    %rdx,-0x18(%rbp)
   140001d7f:	48 83 7d e8 00       	cmpq   $0x0,-0x18(%rbp)
   140001d84:	74 25                	je     140001dab <_type_struct__update_member+0x112>
   140001d86:	48 8b 45 10          	mov    0x10(%rbp),%rax
   140001d8a:	48 8b 40 10          	mov    0x10(%rax),%rax
   140001d8e:	48 2b 45 e8          	sub    -0x18(%rbp),%rax
   140001d92:	48 89 45 d8          	mov    %rax,-0x28(%rbp)
   140001d96:	48 8b 55 f8          	mov    -0x8(%rbp),%rdx
   140001d9a:	48 8b 45 d8          	mov    -0x28(%rbp),%rax
   140001d9e:	48 39 c2             	cmp    %rax,%rdx
   140001da1:	48 0f 46 c2          	cmovbe %rdx,%rax
   140001da5:	48 89 45 f8          	mov    %rax,-0x8(%rbp)
   140001da9:	eb 08                	jmp    140001db3 <_type_struct__update_member+0x11a>
   140001dab:	48 c7 45 f8 00 00 00 	movq   $0x0,-0x8(%rbp)
   140001db2:	00 
   140001db3:	48 8b 45 f8          	mov    -0x8(%rbp),%rax
   140001db7:	48 01 45 f0          	add    %rax,-0x10(%rbp)
   140001dbb:	48 8b 45 18          	mov    0x18(%rbp),%rax
   140001dbf:	48 8b 55 f0          	mov    -0x10(%rbp),%rdx
   140001dc3:	48 89 50 10          	mov    %rdx,0x10(%rax)
   140001dc7:	48 8b 45 18          	mov    0x18(%rbp),%rax
   140001dcb:	48 8b 40 08          	mov    0x8(%rax),%rax
   140001dcf:	48 89 c1             	mov    %rax,%rcx
   140001dd2:	e8 94 03 00 00       	call   14000216b <type__size>
   140001dd7:	48 8b 55 f0          	mov    -0x10(%rbp),%rdx
   140001ddb:	48 01 c2             	add    %rax,%rdx
   140001dde:	48 8b 45 10          	mov    0x10(%rbp),%rax
   140001de2:	48 89 50 20          	mov    %rdx,0x20(%rax)
   140001de6:	90                   	nop
   140001de7:	48 83 c4 50          	add    $0x50,%rsp
   140001deb:	5d                   	pop    %rbp
   140001dec:	c3                   	ret

0000000140001ded <_type_union__update_member>:
   140001ded:	55                   	push   %rbp
   140001dee:	53                   	push   %rbx
   140001def:	48 83 ec 28          	sub    $0x28,%rsp
   140001df3:	48 8d 6c 24 20       	lea    0x20(%rsp),%rbp
   140001df8:	48 89 4d 20          	mov    %rcx,0x20(%rbp)
   140001dfc:	48 89 55 28          	mov    %rdx,0x28(%rbp)
   140001e00:	48 8b 45 20          	mov    0x20(%rbp),%rax
   140001e04:	48 8b 40 38          	mov    0x38(%rax),%rax
   140001e08:	48 85 c0             	test   %rax,%rax
   140001e0b:	75 4a                	jne    140001e57 <_type_union__update_member+0x6a>
   140001e0d:	48 8b 45 20          	mov    0x20(%rbp),%rax
   140001e11:	48 8b 40 30          	mov    0x30(%rax),%rax
   140001e15:	48 85 c0             	test   %rax,%rax
   140001e18:	74 23                	je     140001e3d <_type_union__update_member+0x50>
   140001e1a:	41 b8 bf 00 00 00    	mov    $0xbf,%r8d
   140001e20:	48 8d 05 29 12 01 00 	lea    0x11229(%rip),%rax        # 140013050 <.rdata>
   140001e27:	48 89 c2             	mov    %rax,%rdx
   140001e2a:	48 8d 05 5f 13 01 00 	lea    0x1135f(%rip),%rax        # 140013190 <.rdata+0x140>
   140001e31:	48 89 c1             	mov    %rax,%rcx
   140001e34:	48 8b 05 05 95 01 00 	mov    0x19505(%rip),%rax        # 14001b340 <__imp__assert>
   140001e3b:	ff d0                	call   *%rax
   140001e3d:	48 8b 45 20          	mov    0x20(%rbp),%rax
   140001e41:	48 8b 55 28          	mov    0x28(%rbp),%rdx
   140001e45:	48 89 50 38          	mov    %rdx,0x38(%rax)
   140001e49:	48 8b 45 20          	mov    0x20(%rbp),%rax
   140001e4d:	48 8b 55 28          	mov    0x28(%rbp),%rdx
   140001e51:	48 89 50 30          	mov    %rdx,0x30(%rax)
   140001e55:	eb 65                	jmp    140001ebc <_type_union__update_member+0xcf>
   140001e57:	48 8b 45 28          	mov    0x28(%rbp),%rax
   140001e5b:	48 8b 40 08          	mov    0x8(%rax),%rax
   140001e5f:	48 89 c1             	mov    %rax,%rcx
   140001e62:	e8 04 03 00 00       	call   14000216b <type__size>
   140001e67:	48 89 c3             	mov    %rax,%rbx
   140001e6a:	48 8b 45 20          	mov    0x20(%rbp),%rax
   140001e6e:	48 8b 40 38          	mov    0x38(%rax),%rax
   140001e72:	48 8b 40 08          	mov    0x8(%rax),%rax
   140001e76:	48 89 c1             	mov    %rax,%rcx
   140001e79:	e8 ed 02 00 00       	call   14000216b <type__size>
   140001e7e:	48 39 d8             	cmp    %rbx,%rax
   140001e81:	73 0c                	jae    140001e8f <_type_union__update_member+0xa2>
   140001e83:	48 8b 45 20          	mov    0x20(%rbp),%rax
   140001e87:	48 8b 55 28          	mov    0x28(%rbp),%rdx
   140001e8b:	48 89 50 38          	mov    %rdx,0x38(%rax)
   140001e8f:	48 8b 45 28          	mov    0x28(%rbp),%rax
   140001e93:	48 8b 40 08          	mov    0x8(%rax),%rax
   140001e97:	48 8b 40 10          	mov    0x10(%rax),%rax
   140001e9b:	48 8b 55 20          	mov    0x20(%rbp),%rdx
   140001e9f:	48 8b 52 30          	mov    0x30(%rdx),%rdx
   140001ea3:	48 8b 52 08          	mov    0x8(%rdx),%rdx
   140001ea7:	48 8b 52 10          	mov    0x10(%rdx),%rdx
   140001eab:	48 39 c2             	cmp    %rax,%rdx
   140001eae:	73 0c                	jae    140001ebc <_type_union__update_member+0xcf>
   140001eb0:	48 8b 45 20          	mov    0x20(%rbp),%rax
   140001eb4:	48 8b 55 28          	mov    0x28(%rbp),%rdx
   140001eb8:	48 89 50 30          	mov    %rdx,0x30(%rax)
   140001ebc:	48 8b 45 20          	mov    0x20(%rbp),%rax
   140001ec0:	48 8b 40 38          	mov    0x38(%rax),%rax
   140001ec4:	48 8b 40 08          	mov    0x8(%rax),%rax
   140001ec8:	48 89 c1             	mov    %rax,%rcx
   140001ecb:	e8 9b 02 00 00       	call   14000216b <type__size>
   140001ed0:	48 8b 55 20          	mov    0x20(%rbp),%rdx
   140001ed4:	48 89 42 20          	mov    %rax,0x20(%rdx)
   140001ed8:	48 8b 45 20          	mov    0x20(%rbp),%rax
   140001edc:	48 8b 40 30          	mov    0x30(%rax),%rax
   140001ee0:	48 8b 40 08          	mov    0x8(%rax),%rax
   140001ee4:	48 8b 50 10          	mov    0x10(%rax),%rdx
   140001ee8:	48 8b 45 20          	mov    0x20(%rbp),%rax
   140001eec:	48 8b 40 18          	mov    0x18(%rax),%rax
   140001ef0:	48 39 c2             	cmp    %rax,%rdx
   140001ef3:	48 0f 47 d0          	cmova  %rax,%rdx
   140001ef7:	48 8b 45 20          	mov    0x20(%rbp),%rax
   140001efb:	48 89 50 10          	mov    %rdx,0x10(%rax)
   140001eff:	90                   	nop
   140001f00:	48 83 c4 28          	add    $0x28,%rsp
   140001f04:	5b                   	pop    %rbx
   140001f05:	5d                   	pop    %rbp
   140001f06:	c3                   	ret

0000000140001f07 <type_atom__create>:
   140001f07:	55                   	push   %rbp
   140001f08:	48 89 e5             	mov    %rsp,%rbp
   140001f0b:	48 83 ec 30          	sub    $0x30,%rsp
   140001f0f:	48 89 4d 10          	mov    %rcx,0x10(%rbp)
   140001f13:	48 89 55 18          	mov    %rdx,0x18(%rbp)
   140001f17:	4c 89 45 20          	mov    %r8,0x20(%rbp)
   140001f1b:	4c 89 4d 28          	mov    %r9,0x28(%rbp)
   140001f1f:	48 8b 45 10          	mov    0x10(%rbp),%rax
   140001f23:	ba 40 00 00 00       	mov    $0x40,%edx
   140001f28:	48 89 c1             	mov    %rax,%rcx
   140001f2b:	e8 1a fd ff ff       	call   140001c4a <_type__create>
   140001f30:	48 89 45 f8          	mov    %rax,-0x8(%rbp)
   140001f34:	48 8b 45 f8          	mov    -0x8(%rbp),%rax
   140001f38:	c7 00 00 00 00 00    	movl   $0x0,(%rax)
   140001f3e:	48 8b 45 f8          	mov    -0x8(%rbp),%rax
   140001f42:	48 8b 55 20          	mov    0x20(%rbp),%rdx
   140001f46:	48 89 50 10          	mov    %rdx,0x10(%rax)
   140001f4a:	48 8b 45 f8          	mov    -0x8(%rbp),%rax
   140001f4e:	48 c7 40 18 ff ff ff 	movq   $0xffffffffffffffff,0x18(%rax)
   140001f55:	ff 
   140001f56:	48 8b 45 f8          	mov    -0x8(%rbp),%rax
   140001f5a:	48 8b 55 20          	mov    0x20(%rbp),%rdx
   140001f5e:	48 89 50 20          	mov    %rdx,0x20(%rax)
   140001f62:	48 8b 45 f8          	mov    -0x8(%rbp),%rax
   140001f66:	48 8b 55 18          	mov    0x18(%rbp),%rdx
   140001f6a:	48 89 50 38          	mov    %rdx,0x38(%rax)
   140001f6e:	48 8b 45 f8          	mov    -0x8(%rbp),%rax
   140001f72:	48 8b 55 28          	mov    0x28(%rbp),%rdx
   140001f76:	48 89 50 30          	mov    %rdx,0x30(%rax)
   140001f7a:	48 8b 45 f8          	mov    -0x8(%rbp),%rax
   140001f7e:	48 83 c4 30          	add    $0x30,%rsp
   140001f82:	5d                   	pop    %rbp
   140001f83:	c3                   	ret

0000000140001f84 <type__set_max_alignment>:
   140001f84:	55                   	push   %rbp
   140001f85:	48 89 e5             	mov    %rsp,%rbp
   140001f88:	48 83 ec 40          	sub    $0x40,%rsp
   140001f8c:	48 89 4d 10          	mov    %rcx,0x10(%rbp)
   140001f90:	48 89 55 18          	mov    %rdx,0x18(%rbp)
   140001f94:	48 8b 45 10          	mov    0x10(%rbp),%rax
   140001f98:	8b 00                	mov    (%rax),%eax
   140001f9a:	83 f8 01             	cmp    $0x1,%eax
   140001f9d:	74 0f                	je     140001fae <type__set_max_alignment+0x2a>
   140001f9f:	48 8b 45 10          	mov    0x10(%rbp),%rax
   140001fa3:	8b 00                	mov    (%rax),%eax
   140001fa5:	83 f8 02             	cmp    $0x2,%eax
   140001fa8:	0f 85 34 01 00 00    	jne    1400020e2 <type__set_max_alignment+0x15e>
   140001fae:	48 83 7d 18 ff       	cmpq   $0xffffffffffffffff,0x18(%rbp)
   140001fb3:	74 5d                	je     140002012 <type__set_max_alignment+0x8e>
   140001fb5:	48 8b 45 18          	mov    0x18(%rbp),%rax
   140001fb9:	48 89 c1             	mov    %rax,%rcx
   140001fbc:	e8 0f f7 ff ff       	call   1400016d0 <is_pow_of_two>
   140001fc1:	84 c0                	test   %al,%al
   140001fc3:	75 23                	jne    140001fe8 <type__set_max_alignment+0x64>
   140001fc5:	41 b8 e5 00 00 00    	mov    $0xe5,%r8d
   140001fcb:	48 8d 05 7e 10 01 00 	lea    0x1107e(%rip),%rax        # 140013050 <.rdata>
   140001fd2:	48 89 c2             	mov    %rax,%rdx
   140001fd5:	48 8d 05 d9 11 01 00 	lea    0x111d9(%rip),%rax        # 1400131b5 <.rdata+0x165>
   140001fdc:	48 89 c1             	mov    %rax,%rcx
   140001fdf:	48 8b 05 5a 93 01 00 	mov    0x1935a(%rip),%rax        # 14001b340 <__imp__assert>
   140001fe6:	ff d0                	call   *%rax
   140001fe8:	48 83 7d 18 10       	cmpq   $0x10,0x18(%rbp)
   140001fed:	76 23                	jbe    140002012 <type__set_max_alignment+0x8e>
   140001fef:	41 b8 e6 00 00 00    	mov    $0xe6,%r8d
   140001ff5:	48 8d 05 54 10 01 00 	lea    0x11054(%rip),%rax        # 140013050 <.rdata>
   140001ffc:	48 89 c2             	mov    %rax,%rdx
   140001fff:	48 8d 05 cc 11 01 00 	lea    0x111cc(%rip),%rax        # 1400131d2 <.rdata+0x182>
   140002006:	48 89 c1             	mov    %rax,%rcx
   140002009:	48 8b 05 30 93 01 00 	mov    0x19330(%rip),%rax        # 14001b340 <__imp__assert>
   140002010:	ff d0                	call   *%rax
   140002012:	48 8b 45 10          	mov    0x10(%rbp),%rax
   140002016:	48 8b 55 18          	mov    0x18(%rbp),%rdx
   14000201a:	48 89 50 18          	mov    %rdx,0x18(%rax)
   14000201e:	48 8b 45 10          	mov    0x10(%rbp),%rax
   140002022:	8b 00                	mov    (%rax),%eax
   140002024:	83 f8 01             	cmp    $0x1,%eax
   140002027:	75 57                	jne    140002080 <type__set_max_alignment+0xfc>
   140002029:	48 8b 45 10          	mov    0x10(%rbp),%rax
   14000202d:	48 89 45 e8          	mov    %rax,-0x18(%rbp)
   140002031:	48 8b 45 10          	mov    0x10(%rbp),%rax
   140002035:	48 c7 40 20 00 00 00 	movq   $0x0,0x20(%rax)
   14000203c:	00 
   14000203d:	c7 45 fc 00 00 00 00 	movl   $0x0,-0x4(%rbp)
   140002044:	eb 2c                	jmp    140002072 <type__set_max_alignment+0xee>
   140002046:	48 8b 45 e8          	mov    -0x18(%rbp),%rax
   14000204a:	48 8b 48 30          	mov    0x30(%rax),%rcx
   14000204e:	8b 55 fc             	mov    -0x4(%rbp),%edx
   140002051:	48 89 d0             	mov    %rdx,%rax
   140002054:	48 01 c0             	add    %rax,%rax
   140002057:	48 01 d0             	add    %rdx,%rax
   14000205a:	48 c1 e0 03          	shl    $0x3,%rax
   14000205e:	48 8d 14 01          	lea    (%rcx,%rax,1),%rdx
   140002062:	48 8b 45 e8          	mov    -0x18(%rbp),%rax
   140002066:	48 89 c1             	mov    %rax,%rcx
   140002069:	e8 2b fc ff ff       	call   140001c99 <_type_struct__update_member>
   14000206e:	83 45 fc 01          	addl   $0x1,-0x4(%rbp)
   140002072:	48 8b 45 e8          	mov    -0x18(%rbp),%rax
   140002076:	8b 40 3c             	mov    0x3c(%rax),%eax
   140002079:	39 45 fc             	cmp    %eax,-0x4(%rbp)
   14000207c:	72 c8                	jb     140002046 <type__set_max_alignment+0xc2>
   14000207e:	eb 63                	jmp    1400020e3 <type__set_max_alignment+0x15f>
   140002080:	48 8b 45 10          	mov    0x10(%rbp),%rax
   140002084:	8b 00                	mov    (%rax),%eax
   140002086:	83 f8 02             	cmp    $0x2,%eax
   140002089:	75 58                	jne    1400020e3 <type__set_max_alignment+0x15f>
   14000208b:	48 8b 45 10          	mov    0x10(%rbp),%rax
   14000208f:	48 89 45 f0          	mov    %rax,-0x10(%rbp)
   140002093:	48 8b 45 10          	mov    0x10(%rbp),%rax
   140002097:	48 c7 40 20 00 00 00 	movq   $0x0,0x20(%rax)
   14000209e:	00 
   14000209f:	c7 45 f8 00 00 00 00 	movl   $0x0,-0x8(%rbp)
   1400020a6:	eb 2c                	jmp    1400020d4 <type__set_max_alignment+0x150>
   1400020a8:	48 8b 45 f0          	mov    -0x10(%rbp),%rax
   1400020ac:	48 8b 48 40          	mov    0x40(%rax),%rcx
   1400020b0:	8b 55 f8             	mov    -0x8(%rbp),%edx
   1400020b3:	48 89 d0             	mov    %rdx,%rax
   1400020b6:	48 01 c0             	add    %rax,%rax
   1400020b9:	48 01 d0             	add    %rdx,%rax
   1400020bc:	48 c1 e0 03          	shl    $0x3,%rax
   1400020c0:	48 8d 14 01          	lea    (%rcx,%rax,1),%rdx
   1400020c4:	48 8b 45 f0          	mov    -0x10(%rbp),%rax
   1400020c8:	48 89 c1             	mov    %rax,%rcx
   1400020cb:	e8 1d fd ff ff       	call   140001ded <_type_union__update_member>
   1400020d0:	83 45 f8 01          	addl   $0x1,-0x8(%rbp)
   1400020d4:	48 8b 45 f0          	mov    -0x10(%rbp),%rax
   1400020d8:	8b 40 4c             	mov    0x4c(%rax),%eax
   1400020db:	39 45 f8             	cmp    %eax,-0x8(%rbp)
   1400020de:	72 c8                	jb     1400020a8 <type__set_max_alignment+0x124>
   1400020e0:	eb 01                	jmp    1400020e3 <type__set_max_alignment+0x15f>
   1400020e2:	90                   	nop
   1400020e3:	48 83 c4 40          	add    $0x40,%rsp
   1400020e7:	5d                   	pop    %rbp
   1400020e8:	c3                   	ret

00000001400020e9 <type__set_alignment>:
   1400020e9:	55                   	push   %rbp
   1400020ea:	48 89 e5             	mov    %rsp,%rbp
   1400020ed:	48 83 ec 20          	sub    $0x20,%rsp
   1400020f1:	48 89 4d 10          	mov    %rcx,0x10(%rbp)
   1400020f5:	48 89 55 18          	mov    %rdx,0x18(%rbp)
   1400020f9:	48 83 7d 18 ff       	cmpq   $0xffffffffffffffff,0x18(%rbp)
   1400020fe:	74 33                	je     140002133 <type__set_alignment+0x4a>
   140002100:	48 8b 45 18          	mov    0x18(%rbp),%rax
   140002104:	48 89 c1             	mov    %rax,%rcx
   140002107:	e8 c4 f5 ff ff       	call   1400016d0 <is_pow_of_two>
   14000210c:	84 c0                	test   %al,%al
   14000210e:	75 23                	jne    140002133 <type__set_alignment+0x4a>
   140002110:	41 b8 00 01 00 00    	mov    $0x100,%r8d
   140002116:	48 8d 05 33 0f 01 00 	lea    0x10f33(%rip),%rax        # 140013050 <.rdata>
   14000211d:	48 89 c2             	mov    %rax,%rdx
   140002120:	48 8d 05 bf 10 01 00 	lea    0x110bf(%rip),%rax        # 1400131e6 <.rdata+0x196>
   140002127:	48 89 c1             	mov    %rax,%rcx
   14000212a:	48 8b 05 0f 92 01 00 	mov    0x1920f(%rip),%rax        # 14001b340 <__imp__assert>
   140002131:	ff d0                	call   *%rax
   140002133:	48 8b 45 10          	mov    0x10(%rbp),%rax
   140002137:	48 8b 55 18          	mov    0x18(%rbp),%rdx
   14000213b:	48 89 50 10          	mov    %rdx,0x10(%rax)
   14000213f:	48 8b 45 10          	mov    0x10(%rbp),%rax
   140002143:	48 c7 c2 ff ff ff ff 	mov    $0xffffffffffffffff,%rdx
   14000214a:	48 89 c1             	mov    %rax,%rcx
   14000214d:	e8 32 fe ff ff       	call   140001f84 <type__set_max_alignment>
   140002152:	90                   	nop
   140002153:	48 83 c4 20          	add    $0x20,%rsp
   140002157:	5d                   	pop    %rbp
   140002158:	c3                   	ret

0000000140002159 <type__alignment>:
   140002159:	55                   	push   %rbp
   14000215a:	48 89 e5             	mov    %rsp,%rbp
   14000215d:	48 89 4d 10          	mov    %rcx,0x10(%rbp)
   140002161:	48 8b 45 10          	mov    0x10(%rbp),%rax
   140002165:	48 8b 40 10          	mov    0x10(%rax),%rax
   140002169:	5d                   	pop    %rbp
   14000216a:	c3                   	ret

000000014000216b <type__size>:
   14000216b:	55                   	push   %rbp
   14000216c:	48 89 e5             	mov    %rsp,%rbp
   14000216f:	48 83 ec 10          	sub    $0x10,%rsp
   140002173:	48 89 4d 10          	mov    %rcx,0x10(%rbp)
   140002177:	48 8b 45 10          	mov    0x10(%rbp),%rax
   14000217b:	8b 00                	mov    (%rax),%eax
   14000217d:	83 f8 02             	cmp    $0x2,%eax
   140002180:	74 0b                	je     14000218d <type__size+0x22>
   140002182:	48 8b 45 10          	mov    0x10(%rbp),%rax
   140002186:	8b 00                	mov    (%rax),%eax
   140002188:	83 f8 01             	cmp    $0x1,%eax
   14000218b:	75 46                	jne    1400021d3 <type__size+0x68>
   14000218d:	48 8b 45 10          	mov    0x10(%rbp),%rax
   140002191:	48 8b 40 20          	mov    0x20(%rax),%rax
   140002195:	48 8b 55 10          	mov    0x10(%rbp),%rdx
   140002199:	48 8b 4a 10          	mov    0x10(%rdx),%rcx
   14000219d:	ba 00 00 00 00       	mov    $0x0,%edx
   1400021a2:	48 f7 f1             	div    %rcx
   1400021a5:	48 89 55 f8          	mov    %rdx,-0x8(%rbp)
   1400021a9:	48 83 7d f8 00       	cmpq   $0x0,-0x8(%rbp)
   1400021ae:	74 19                	je     1400021c9 <type__size+0x5e>
   1400021b0:	48 8b 45 10          	mov    0x10(%rbp),%rax
   1400021b4:	48 8b 50 20          	mov    0x20(%rax),%rdx
   1400021b8:	48 8b 45 10          	mov    0x10(%rbp),%rax
   1400021bc:	48 8b 40 10          	mov    0x10(%rax),%rax
   1400021c0:	48 2b 45 f8          	sub    -0x8(%rbp),%rax
   1400021c4:	48 01 d0             	add    %rdx,%rax
   1400021c7:	eb 12                	jmp    1400021db <type__size+0x70>
   1400021c9:	48 8b 45 10          	mov    0x10(%rbp),%rax
   1400021cd:	48 8b 40 20          	mov    0x20(%rax),%rax
   1400021d1:	eb 08                	jmp    1400021db <type__size+0x70>
   1400021d3:	48 8b 45 10          	mov    0x10(%rbp),%rax
   1400021d7:	48 8b 40 20          	mov    0x20(%rax),%rax
   1400021db:	48 83 c4 10          	add    $0x10,%rsp
   1400021df:	5d                   	pop    %rbp
   1400021e0:	c3                   	ret

00000001400021e1 <type__abbreviated_name>:
   1400021e1:	55                   	push   %rbp
   1400021e2:	48 89 e5             	mov    %rsp,%rbp
   1400021e5:	48 89 4d 10          	mov    %rcx,0x10(%rbp)
   1400021e9:	48 8b 45 10          	mov    0x10(%rbp),%rax
   1400021ed:	48 8b 40 08          	mov    0x8(%rax),%rax
   1400021f1:	5d                   	pop    %rbp
   1400021f2:	c3                   	ret

00000001400021f3 <type__address>:
   1400021f3:	55                   	push   %rbp
   1400021f4:	48 89 e5             	mov    %rsp,%rbp
   1400021f7:	48 83 ec 30          	sub    $0x30,%rsp
   1400021fb:	48 89 4d 10          	mov    %rcx,0x10(%rbp)
   1400021ff:	48 89 55 18          	mov    %rdx,0x18(%rbp)
   140002203:	48 8b 45 10          	mov    0x10(%rbp),%rax
   140002207:	48 89 c1             	mov    %rax,%rcx
   14000220a:	e8 4a ff ff ff       	call   140002159 <type__alignment>
   14000220f:	48 89 45 f8          	mov    %rax,-0x8(%rbp)
   140002213:	48 83 7d f8 00       	cmpq   $0x0,-0x8(%rbp)
   140002218:	75 23                	jne    14000223d <type__address+0x4a>
   14000221a:	41 b8 23 01 00 00    	mov    $0x123,%r8d
   140002220:	48 8d 05 29 0e 01 00 	lea    0x10e29(%rip),%rax        # 140013050 <.rdata>
   140002227:	48 89 c2             	mov    %rax,%rdx
   14000222a:	48 8d 05 ce 0f 01 00 	lea    0x10fce(%rip),%rax        # 1400131ff <.rdata+0x1af>
   140002231:	48 89 c1             	mov    %rax,%rcx
   140002234:	48 8b 05 05 91 01 00 	mov    0x19105(%rip),%rax        # 14001b340 <__imp__assert>
   14000223b:	ff d0                	call   *%rax
   14000223d:	48 8b 45 18          	mov    0x18(%rbp),%rax
   140002241:	ba 00 00 00 00       	mov    $0x0,%edx
   140002246:	48 f7 75 f8          	divq   -0x8(%rbp)
   14000224a:	48 89 55 f0          	mov    %rdx,-0x10(%rbp)
   14000224e:	48 83 7d f0 00       	cmpq   $0x0,-0x10(%rbp)
   140002253:	74 0c                	je     140002261 <type__address+0x6e>
   140002255:	48 8b 45 f8          	mov    -0x8(%rbp),%rax
   140002259:	48 2b 45 f0          	sub    -0x10(%rbp),%rax
   14000225d:	48 01 45 18          	add    %rax,0x18(%rbp)
   140002261:	48 8b 45 18          	mov    0x18(%rbp),%rax
   140002265:	ba 00 00 00 00       	mov    $0x0,%edx
   14000226a:	48 f7 75 f8          	divq   -0x8(%rbp)
   14000226e:	48 89 d0             	mov    %rdx,%rax
   140002271:	48 85 c0             	test   %rax,%rax
   140002274:	74 23                	je     140002299 <type__address+0xa6>
   140002276:	41 b8 28 01 00 00    	mov    $0x128,%r8d
   14000227c:	48 8d 05 cd 0d 01 00 	lea    0x10dcd(%rip),%rax        # 140013050 <.rdata>
   140002283:	48 89 c2             	mov    %rax,%rdx
   140002286:	48 8d 05 83 0f 01 00 	lea    0x10f83(%rip),%rax        # 140013210 <.rdata+0x1c0>
   14000228d:	48 89 c1             	mov    %rax,%rcx
   140002290:	48 8b 05 a9 90 01 00 	mov    0x190a9(%rip),%rax        # 14001b340 <__imp__assert>
   140002297:	ff d0                	call   *%rax
   140002299:	48 8b 45 18          	mov    0x18(%rbp),%rax
   14000229d:	48 83 c4 30          	add    $0x30,%rsp
   1400022a1:	5d                   	pop    %rbp
   1400022a2:	c3                   	ret

00000001400022a3 <type_struct__member>:
   1400022a3:	55                   	push   %rbp
   1400022a4:	48 89 e5             	mov    %rsp,%rbp
   1400022a7:	48 83 ec 30          	sub    $0x30,%rsp
   1400022ab:	48 89 4d 10          	mov    %rcx,0x10(%rbp)
   1400022af:	48 89 55 18          	mov    %rdx,0x18(%rbp)
   1400022b3:	c7 45 fc 00 00 00 00 	movl   $0x0,-0x4(%rbp)
   1400022ba:	eb 4f                	jmp    14000230b <type_struct__member+0x68>
   1400022bc:	48 8b 45 10          	mov    0x10(%rbp),%rax
   1400022c0:	48 8b 48 30          	mov    0x30(%rax),%rcx
   1400022c4:	8b 55 fc             	mov    -0x4(%rbp),%edx
   1400022c7:	48 89 d0             	mov    %rdx,%rax
   1400022ca:	48 01 c0             	add    %rax,%rax
   1400022cd:	48 01 d0             	add    %rdx,%rax
   1400022d0:	48 c1 e0 03          	shl    $0x3,%rax
   1400022d4:	48 01 c8             	add    %rcx,%rax
   1400022d7:	48 8b 00             	mov    (%rax),%rax
   1400022da:	48 8b 55 18          	mov    0x18(%rbp),%rdx
   1400022de:	48 89 c1             	mov    %rax,%rcx
   1400022e1:	e8 c2 f7 00 00       	call   140011aa8 <strcmp>
   1400022e6:	85 c0                	test   %eax,%eax
   1400022e8:	75 1d                	jne    140002307 <type_struct__member+0x64>
   1400022ea:	48 8b 45 10          	mov    0x10(%rbp),%rax
   1400022ee:	48 8b 48 30          	mov    0x30(%rax),%rcx
   1400022f2:	8b 55 fc             	mov    -0x4(%rbp),%edx
   1400022f5:	48 89 d0             	mov    %rdx,%rax
   1400022f8:	48 01 c0             	add    %rax,%rax
   1400022fb:	48 01 d0             	add    %rdx,%rax
   1400022fe:	48 c1 e0 03          	shl    $0x3,%rax
   140002302:	48 01 c8             	add    %rcx,%rax
   140002305:	eb 15                	jmp    14000231c <type_struct__member+0x79>
   140002307:	83 45 fc 01          	addl   $0x1,-0x4(%rbp)
   14000230b:	48 8b 45 10          	mov    0x10(%rbp),%rax
   14000230f:	8b 40 3c             	mov    0x3c(%rax),%eax
   140002312:	39 45 fc             	cmp    %eax,-0x4(%rbp)
   140002315:	72 a5                	jb     1400022bc <type_struct__member+0x19>
   140002317:	b8 00 00 00 00       	mov    $0x0,%eax
   14000231c:	48 83 c4 30          	add    $0x30,%rsp
   140002320:	5d                   	pop    %rbp
   140002321:	c3                   	ret

0000000140002322 <type_union__member>:
   140002322:	55                   	push   %rbp
   140002323:	48 89 e5             	mov    %rsp,%rbp
   140002326:	48 83 ec 30          	sub    $0x30,%rsp
   14000232a:	48 89 4d 10          	mov    %rcx,0x10(%rbp)
   14000232e:	48 89 55 18          	mov    %rdx,0x18(%rbp)
   140002332:	c7 45 fc 00 00 00 00 	movl   $0x0,-0x4(%rbp)
   140002339:	eb 4f                	jmp    14000238a <type_union__member+0x68>
   14000233b:	48 8b 45 10          	mov    0x10(%rbp),%rax
   14000233f:	48 8b 48 40          	mov    0x40(%rax),%rcx
   140002343:	8b 55 fc             	mov    -0x4(%rbp),%edx
   140002346:	48 89 d0             	mov    %rdx,%rax
   140002349:	48 01 c0             	add    %rax,%rax
   14000234c:	48 01 d0             	add    %rdx,%rax
   14000234f:	48 c1 e0 03          	shl    $0x3,%rax
   140002353:	48 01 c8             	add    %rcx,%rax
   140002356:	48 8b 00             	mov    (%rax),%rax
   140002359:	48 8b 55 18          	mov    0x18(%rbp),%rdx
   14000235d:	48 89 c1             	mov    %rax,%rcx
   140002360:	e8 43 f7 00 00       	call   140011aa8 <strcmp>
   140002365:	85 c0                	test   %eax,%eax
   140002367:	75 1d                	jne    140002386 <type_union__member+0x64>
   140002369:	48 8b 45 10          	mov    0x10(%rbp),%rax
   14000236d:	48 8b 48 40          	mov    0x40(%rax),%rcx
   140002371:	8b 55 fc             	mov    -0x4(%rbp),%edx
   140002374:	48 89 d0             	mov    %rdx,%rax
   140002377:	48 01 c0             	add    %rax,%rax
   14000237a:	48 01 d0             	add    %rdx,%rax
   14000237d:	48 c1 e0 03          	shl    $0x3,%rax
   140002381:	48 01 c8             	add    %rcx,%rax
   140002384:	eb 15                	jmp    14000239b <type_union__member+0x79>
   140002386:	83 45 fc 01          	addl   $0x1,-0x4(%rbp)
   14000238a:	48 8b 45 10          	mov    0x10(%rbp),%rax
   14000238e:	8b 40 4c             	mov    0x4c(%rax),%eax
   140002391:	39 45 fc             	cmp    %eax,-0x4(%rbp)
   140002394:	72 a5                	jb     14000233b <type_union__member+0x19>
   140002396:	b8 00 00 00 00       	mov    $0x0,%eax
   14000239b:	48 83 c4 30          	add    $0x30,%rsp
   14000239f:	5d                   	pop    %rbp
   1400023a0:	c3                   	ret

00000001400023a1 <member__print>:
   1400023a1:	55                   	push   %rbp
   1400023a2:	48 89 e5             	mov    %rsp,%rbp
   1400023a5:	48 83 ec 30          	sub    $0x30,%rsp
   1400023a9:	48 89 4d 10          	mov    %rcx,0x10(%rbp)
   1400023ad:	48 89 55 18          	mov    %rdx,0x18(%rbp)
   1400023b1:	48 8b 45 10          	mov    0x10(%rbp),%rax
   1400023b5:	48 8b 10             	mov    (%rax),%rdx
   1400023b8:	48 8b 45 18          	mov    0x18(%rbp),%rax
   1400023bc:	48 89 54 24 28       	mov    %rdx,0x28(%rsp)
   1400023c1:	48 8d 15 82 0e 01 00 	lea    0x10e82(%rip),%rdx        # 14001324a <.rdata+0x1fa>
   1400023c8:	48 89 54 24 20       	mov    %rdx,0x20(%rsp)
   1400023cd:	41 b9 16 00 00 00    	mov    $0x16,%r9d
   1400023d3:	41 b8 16 00 00 00    	mov    $0x16,%r8d
   1400023d9:	48 8d 15 60 0e 01 00 	lea    0x10e60(%rip),%rdx        # 140013240 <.rdata+0x1f0>
   1400023e0:	48 89 c1             	mov    %rax,%rcx
   1400023e3:	e8 a8 f2 00 00       	call   140011690 <fprintf>
   1400023e8:	48 8b 45 10          	mov    0x10(%rbp),%rax
   1400023ec:	48 8b 50 10          	mov    0x10(%rax),%rdx
   1400023f0:	48 8b 45 18          	mov    0x18(%rbp),%rax
   1400023f4:	48 89 54 24 28       	mov    %rdx,0x28(%rsp)
   1400023f9:	48 8d 15 5d 0e 01 00 	lea    0x10e5d(%rip),%rdx        # 14001325d <.rdata+0x20d>
   140002400:	48 89 54 24 20       	mov    %rdx,0x20(%rsp)
   140002405:	41 b9 16 00 00 00    	mov    $0x16,%r9d
   14000240b:	41 b8 16 00 00 00    	mov    $0x16,%r8d
   140002411:	48 8d 15 39 0e 01 00 	lea    0x10e39(%rip),%rdx        # 140013251 <.rdata+0x201>
   140002418:	48 89 c1             	mov    %rax,%rcx
   14000241b:	e8 70 f2 00 00       	call   140011690 <fprintf>
   140002420:	48 8b 45 10          	mov    0x10(%rbp),%rax
   140002424:	48 8b 40 08          	mov    0x8(%rax),%rax
   140002428:	48 89 c1             	mov    %rax,%rcx
   14000242b:	e8 b1 fd ff ff       	call   1400021e1 <type__abbreviated_name>
   140002430:	48 89 c2             	mov    %rax,%rdx
   140002433:	48 8b 45 18          	mov    0x18(%rbp),%rax
   140002437:	48 89 54 24 28       	mov    %rdx,0x28(%rsp)
   14000243c:	48 8d 15 23 0e 01 00 	lea    0x10e23(%rip),%rdx        # 140013266 <.rdata+0x216>
   140002443:	48 89 54 24 20       	mov    %rdx,0x20(%rsp)
   140002448:	41 b9 16 00 00 00    	mov    $0x16,%r9d
   14000244e:	41 b8 16 00 00 00    	mov    $0x16,%r8d
   140002454:	48 8d 15 e5 0d 01 00 	lea    0x10de5(%rip),%rdx        # 140013240 <.rdata+0x1f0>
   14000245b:	48 89 c1             	mov    %rax,%rcx
   14000245e:	e8 2d f2 00 00       	call   140011690 <fprintf>
   140002463:	90                   	nop
   140002464:	48 83 c4 30          	add    $0x30,%rsp
   140002468:	5d                   	pop    %rbp
   140002469:	c3                   	ret

000000014000246a <member__name>:
   14000246a:	55                   	push   %rbp
   14000246b:	48 89 e5             	mov    %rsp,%rbp
   14000246e:	48 89 4d 10          	mov    %rcx,0x10(%rbp)
   140002472:	48 8b 45 10          	mov    0x10(%rbp),%rax
   140002476:	48 8b 00             	mov    (%rax),%rax
   140002479:	5d                   	pop    %rbp
   14000247a:	c3                   	ret

000000014000247b <type_struct__create>:
   14000247b:	55                   	push   %rbp
   14000247c:	48 89 e5             	mov    %rsp,%rbp
   14000247f:	48 83 ec 30          	sub    $0x30,%rsp
   140002483:	48 89 4d 10          	mov    %rcx,0x10(%rbp)
   140002487:	48 8b 45 10          	mov    0x10(%rbp),%rax
   14000248b:	ba 40 00 00 00       	mov    $0x40,%edx
   140002490:	48 89 c1             	mov    %rax,%rcx
   140002493:	e8 b2 f7 ff ff       	call   140001c4a <_type__create>
   140002498:	48 89 45 f8          	mov    %rax,-0x8(%rbp)
   14000249c:	48 8b 45 f8          	mov    -0x8(%rbp),%rax
   1400024a0:	c7 00 01 00 00 00    	movl   $0x1,(%rax)
   1400024a6:	48 8b 45 f8          	mov    -0x8(%rbp),%rax
   1400024aa:	48 c7 40 10 00 00 00 	movq   $0x0,0x10(%rax)
   1400024b1:	00 
   1400024b2:	48 8b 45 f8          	mov    -0x8(%rbp),%rax
   1400024b6:	48 c7 40 18 ff ff ff 	movq   $0xffffffffffffffff,0x18(%rax)
   1400024bd:	ff 
   1400024be:	48 8b 45 f8          	mov    -0x8(%rbp),%rax
   1400024c2:	48 c7 40 20 00 00 00 	movq   $0x0,0x20(%rax)
   1400024c9:	00 
   1400024ca:	48 8b 45 f8          	mov    -0x8(%rbp),%rax
   1400024ce:	48 83 c4 30          	add    $0x30,%rsp
   1400024d2:	5d                   	pop    %rbp
   1400024d3:	c3                   	ret

00000001400024d4 <type_struct__add>:
   1400024d4:	55                   	push   %rbp
   1400024d5:	48 89 e5             	mov    %rsp,%rbp
   1400024d8:	48 83 ec 30          	sub    $0x30,%rsp
   1400024dc:	48 89 4d 10          	mov    %rcx,0x10(%rbp)
   1400024e0:	48 89 55 18          	mov    %rdx,0x18(%rbp)
   1400024e4:	4c 89 45 20          	mov    %r8,0x20(%rbp)
   1400024e8:	48 c7 45 f8 00 00 00 	movq   $0x0,-0x8(%rbp)
   1400024ef:	00 
   1400024f0:	48 8b 45 10          	mov    0x10(%rbp),%rax
   1400024f4:	8b 50 3c             	mov    0x3c(%rax),%edx
   1400024f7:	48 8b 45 10          	mov    0x10(%rbp),%rax
   1400024fb:	8b 40 38             	mov    0x38(%rax),%eax
   1400024fe:	39 c2                	cmp    %eax,%edx
   140002500:	0f 85 83 00 00 00    	jne    140002589 <type_struct__add+0xb5>
   140002506:	48 8b 45 10          	mov    0x10(%rbp),%rax
   14000250a:	8b 40 3c             	mov    0x3c(%rax),%eax
   14000250d:	85 c0                	test   %eax,%eax
   14000250f:	75 36                	jne    140002547 <type_struct__add+0x73>
   140002511:	48 8b 45 10          	mov    0x10(%rbp),%rax
   140002515:	c7 40 38 08 00 00 00 	movl   $0x8,0x38(%rax)
   14000251c:	48 8b 45 10          	mov    0x10(%rbp),%rax
   140002520:	8b 40 38             	mov    0x38(%rax),%eax
   140002523:	89 c2                	mov    %eax,%edx
   140002525:	48 89 d0             	mov    %rdx,%rax
   140002528:	48 01 c0             	add    %rax,%rax
   14000252b:	48 01 d0             	add    %rdx,%rax
   14000252e:	48 c1 e0 03          	shl    $0x3,%rax
   140002532:	48 89 c1             	mov    %rax,%rcx
   140002535:	e8 36 f5 00 00       	call   140011a70 <malloc>
   14000253a:	48 89 c2             	mov    %rax,%rdx
   14000253d:	48 8b 45 10          	mov    0x10(%rbp),%rax
   140002541:	48 89 50 30          	mov    %rdx,0x30(%rax)
   140002545:	eb 42                	jmp    140002589 <type_struct__add+0xb5>
   140002547:	48 8b 45 10          	mov    0x10(%rbp),%rax
   14000254b:	8b 40 38             	mov    0x38(%rax),%eax
   14000254e:	8d 14 00             	lea    (%rax,%rax,1),%edx
   140002551:	48 8b 45 10          	mov    0x10(%rbp),%rax
   140002555:	89 50 38             	mov    %edx,0x38(%rax)
   140002558:	48 8b 45 10          	mov    0x10(%rbp),%rax
   14000255c:	8b 40 38             	mov    0x38(%rax),%eax
   14000255f:	89 c2                	mov    %eax,%edx
   140002561:	48 89 d0             	mov    %rdx,%rax
   140002564:	48 01 c0             	add    %rax,%rax
   140002567:	48 01 d0             	add    %rdx,%rax
   14000256a:	48 c1 e0 03          	shl    $0x3,%rax
   14000256e:	48 89 c2             	mov    %rax,%rdx
   140002571:	48 8b 45 10          	mov    0x10(%rbp),%rax
   140002575:	48 8b 40 30          	mov    0x30(%rax),%rax
   140002579:	48 89 c1             	mov    %rax,%rcx
   14000257c:	e8 17 f5 00 00       	call   140011a98 <realloc>
   140002581:	48 8b 55 10          	mov    0x10(%rbp),%rdx
   140002585:	48 89 42 30          	mov    %rax,0x30(%rdx)
   140002589:	48 8b 45 10          	mov    0x10(%rbp),%rax
   14000258d:	8b 50 3c             	mov    0x3c(%rax),%edx
   140002590:	48 8b 45 10          	mov    0x10(%rbp),%rax
   140002594:	8b 40 38             	mov    0x38(%rax),%eax
   140002597:	39 c2                	cmp    %eax,%edx
   140002599:	75 23                	jne    1400025be <type_struct__add+0xea>
   14000259b:	41 b8 65 01 00 00    	mov    $0x165,%r8d
   1400025a1:	48 8d 05 a8 0a 01 00 	lea    0x10aa8(%rip),%rax        # 140013050 <.rdata>
   1400025a8:	48 89 c2             	mov    %rax,%rdx
   1400025ab:	48 8d 05 be 0c 01 00 	lea    0x10cbe(%rip),%rax        # 140013270 <.rdata+0x220>
   1400025b2:	48 89 c1             	mov    %rax,%rcx
   1400025b5:	48 8b 05 84 8d 01 00 	mov    0x18d84(%rip),%rax        # 14001b340 <__imp__assert>
   1400025bc:	ff d0                	call   *%rax
   1400025be:	48 8b 45 10          	mov    0x10(%rbp),%rax
   1400025c2:	4c 8b 40 30          	mov    0x30(%rax),%r8
   1400025c6:	48 8b 45 10          	mov    0x10(%rbp),%rax
   1400025ca:	8b 40 3c             	mov    0x3c(%rax),%eax
   1400025cd:	8d 48 01             	lea    0x1(%rax),%ecx
   1400025d0:	48 8b 55 10          	mov    0x10(%rbp),%rdx
   1400025d4:	89 4a 3c             	mov    %ecx,0x3c(%rdx)
   1400025d7:	89 c2                	mov    %eax,%edx
   1400025d9:	48 89 d0             	mov    %rdx,%rax
   1400025dc:	48 01 c0             	add    %rax,%rax
   1400025df:	48 01 d0             	add    %rdx,%rax
   1400025e2:	48 c1 e0 03          	shl    $0x3,%rax
   1400025e6:	4c 01 c0             	add    %r8,%rax
   1400025e9:	48 89 45 f8          	mov    %rax,-0x8(%rbp)
   1400025ed:	48 8b 45 f8          	mov    -0x8(%rbp),%rax
   1400025f1:	48 8b 55 20          	mov    0x20(%rbp),%rdx
   1400025f5:	48 89 10             	mov    %rdx,(%rax)
   1400025f8:	48 8b 45 f8          	mov    -0x8(%rbp),%rax
   1400025fc:	48 8b 55 18          	mov    0x18(%rbp),%rdx
   140002600:	48 89 50 08          	mov    %rdx,0x8(%rax)
   140002604:	48 8b 45 f8          	mov    -0x8(%rbp),%rax
   140002608:	48 c7 40 10 00 00 00 	movq   $0x0,0x10(%rax)
   14000260f:	00 
   140002610:	48 83 7d f8 00       	cmpq   $0x0,-0x8(%rbp)
   140002615:	75 23                	jne    14000263a <type_struct__add+0x166>
   140002617:	41 b8 6a 01 00 00    	mov    $0x16a,%r8d
   14000261d:	48 8d 05 2c 0a 01 00 	lea    0x10a2c(%rip),%rax        # 140013050 <.rdata>
   140002624:	48 89 c2             	mov    %rax,%rdx
   140002627:	48 8d 05 6a 0c 01 00 	lea    0x10c6a(%rip),%rax        # 140013298 <.rdata+0x248>
   14000262e:	48 89 c1             	mov    %rax,%rcx
   140002631:	48 8b 05 08 8d 01 00 	mov    0x18d08(%rip),%rax        # 14001b340 <__imp__assert>
   140002638:	ff d0                	call   *%rax
   14000263a:	48 8b 55 f8          	mov    -0x8(%rbp),%rdx
   14000263e:	48 8b 45 10          	mov    0x10(%rbp),%rax
   140002642:	48 89 c1             	mov    %rax,%rcx
   140002645:	e8 4f f6 ff ff       	call   140001c99 <_type_struct__update_member>
   14000264a:	90                   	nop
   14000264b:	48 83 c4 30          	add    $0x30,%rsp
   14000264f:	5d                   	pop    %rbp
   140002650:	c3                   	ret

0000000140002651 <type_union__create>:
   140002651:	55                   	push   %rbp
   140002652:	48 89 e5             	mov    %rsp,%rbp
   140002655:	48 83 ec 30          	sub    $0x30,%rsp
   140002659:	48 89 4d 10          	mov    %rcx,0x10(%rbp)
   14000265d:	48 8b 45 10          	mov    0x10(%rbp),%rax
   140002661:	ba 50 00 00 00       	mov    $0x50,%edx
   140002666:	48 89 c1             	mov    %rax,%rcx
   140002669:	e8 dc f5 ff ff       	call   140001c4a <_type__create>
   14000266e:	48 89 45 f8          	mov    %rax,-0x8(%rbp)
   140002672:	48 8b 45 f8          	mov    -0x8(%rbp),%rax
   140002676:	c7 00 02 00 00 00    	movl   $0x2,(%rax)
   14000267c:	48 8b 45 f8          	mov    -0x8(%rbp),%rax
   140002680:	48 c7 40 10 00 00 00 	movq   $0x0,0x10(%rax)
   140002687:	00 
   140002688:	48 8b 45 f8          	mov    -0x8(%rbp),%rax
   14000268c:	48 c7 40 18 ff ff ff 	movq   $0xffffffffffffffff,0x18(%rax)
   140002693:	ff 
   140002694:	48 8b 45 f8          	mov    -0x8(%rbp),%rax
   140002698:	48 c7 40 20 00 00 00 	movq   $0x0,0x20(%rax)
   14000269f:	00 
   1400026a0:	48 8b 45 f8          	mov    -0x8(%rbp),%rax
   1400026a4:	48 83 c4 30          	add    $0x30,%rsp
   1400026a8:	5d                   	pop    %rbp
   1400026a9:	c3                   	ret

00000001400026aa <type_union__add>:
   1400026aa:	55                   	push   %rbp
   1400026ab:	48 89 e5             	mov    %rsp,%rbp
   1400026ae:	48 83 ec 30          	sub    $0x30,%rsp
   1400026b2:	48 89 4d 10          	mov    %rcx,0x10(%rbp)
   1400026b6:	48 89 55 18          	mov    %rdx,0x18(%rbp)
   1400026ba:	4c 89 45 20          	mov    %r8,0x20(%rbp)
   1400026be:	48 c7 45 f8 00 00 00 	movq   $0x0,-0x8(%rbp)
   1400026c5:	00 
   1400026c6:	48 8b 45 10          	mov    0x10(%rbp),%rax
   1400026ca:	8b 50 4c             	mov    0x4c(%rax),%edx
   1400026cd:	48 8b 45 10          	mov    0x10(%rbp),%rax
   1400026d1:	8b 40 48             	mov    0x48(%rax),%eax
   1400026d4:	39 c2                	cmp    %eax,%edx
   1400026d6:	0f 85 83 00 00 00    	jne    14000275f <type_union__add+0xb5>
   1400026dc:	48 8b 45 10          	mov    0x10(%rbp),%rax
   1400026e0:	8b 40 4c             	mov    0x4c(%rax),%eax
   1400026e3:	85 c0                	test   %eax,%eax
   1400026e5:	75 36                	jne    14000271d <type_union__add+0x73>
   1400026e7:	48 8b 45 10          	mov    0x10(%rbp),%rax
   1400026eb:	c7 40 48 08 00 00 00 	movl   $0x8,0x48(%rax)
   1400026f2:	48 8b 45 10          	mov    0x10(%rbp),%rax
   1400026f6:	8b 40 48             	mov    0x48(%rax),%eax
   1400026f9:	89 c2                	mov    %eax,%edx
   1400026fb:	48 89 d0             	mov    %rdx,%rax
   1400026fe:	48 01 c0             	add    %rax,%rax
   140002701:	48 01 d0             	add    %rdx,%rax
   140002704:	48 c1 e0 03          	shl    $0x3,%rax
   140002708:	48 89 c1             	mov    %rax,%rcx
   14000270b:	e8 60 f3 00 00       	call   140011a70 <malloc>
   140002710:	48 89 c2             	mov    %rax,%rdx
   140002713:	48 8b 45 10          	mov    0x10(%rbp),%rax
   140002717:	48 89 50 40          	mov    %rdx,0x40(%rax)
   14000271b:	eb 42                	jmp    14000275f <type_union__add+0xb5>
   14000271d:	48 8b 45 10          	mov    0x10(%rbp),%rax
   140002721:	8b 40 48             	mov    0x48(%rax),%eax
   140002724:	8d 14 00             	lea    (%rax,%rax,1),%edx
   140002727:	48 8b 45 10          	mov    0x10(%rbp),%rax
   14000272b:	89 50 48             	mov    %edx,0x48(%rax)
   14000272e:	48 8b 45 10          	mov    0x10(%rbp),%rax
   140002732:	8b 40 48             	mov    0x48(%rax),%eax
   140002735:	89 c2                	mov    %eax,%edx
   140002737:	48 89 d0             	mov    %rdx,%rax
   14000273a:	48 01 c0             	add    %rax,%rax
   14000273d:	48 01 d0             	add    %rdx,%rax
   140002740:	48 c1 e0 03          	shl    $0x3,%rax
   140002744:	48 89 c2             	mov    %rax,%rdx
   140002747:	48 8b 45 10          	mov    0x10(%rbp),%rax
   14000274b:	48 8b 40 40          	mov    0x40(%rax),%rax
   14000274f:	48 89 c1             	mov    %rax,%rcx
   140002752:	e8 41 f3 00 00       	call   140011a98 <realloc>
   140002757:	48 8b 55 10          	mov    0x10(%rbp),%rdx
   14000275b:	48 89 42 40          	mov    %rax,0x40(%rdx)
   14000275f:	48 8b 45 10          	mov    0x10(%rbp),%rax
   140002763:	8b 50 4c             	mov    0x4c(%rax),%edx
   140002766:	48 8b 45 10          	mov    0x10(%rbp),%rax
   14000276a:	8b 40 48             	mov    0x48(%rax),%eax
   14000276d:	39 c2                	cmp    %eax,%edx
   14000276f:	75 23                	jne    140002794 <type_union__add+0xea>
   140002771:	41 b8 87 01 00 00    	mov    $0x187,%r8d
   140002777:	48 8d 05 d2 08 01 00 	lea    0x108d2(%rip),%rax        # 140013050 <.rdata>
   14000277e:	48 89 c2             	mov    %rax,%rdx
   140002781:	48 8d 05 e8 0a 01 00 	lea    0x10ae8(%rip),%rax        # 140013270 <.rdata+0x220>
   140002788:	48 89 c1             	mov    %rax,%rcx
   14000278b:	48 8b 05 ae 8b 01 00 	mov    0x18bae(%rip),%rax        # 14001b340 <__imp__assert>
   140002792:	ff d0                	call   *%rax
   140002794:	48 8b 45 10          	mov    0x10(%rbp),%rax
   140002798:	4c 8b 40 40          	mov    0x40(%rax),%r8
   14000279c:	48 8b 45 10          	mov    0x10(%rbp),%rax
   1400027a0:	8b 40 4c             	mov    0x4c(%rax),%eax
   1400027a3:	8d 48 01             	lea    0x1(%rax),%ecx
   1400027a6:	48 8b 55 10          	mov    0x10(%rbp),%rdx
   1400027aa:	89 4a 4c             	mov    %ecx,0x4c(%rdx)
   1400027ad:	89 c2                	mov    %eax,%edx
   1400027af:	48 89 d0             	mov    %rdx,%rax
   1400027b2:	48 01 c0             	add    %rax,%rax
   1400027b5:	48 01 d0             	add    %rdx,%rax
   1400027b8:	48 c1 e0 03          	shl    $0x3,%rax
   1400027bc:	4c 01 c0             	add    %r8,%rax
   1400027bf:	48 89 45 f8          	mov    %rax,-0x8(%rbp)
   1400027c3:	48 8b 45 f8          	mov    -0x8(%rbp),%rax
   1400027c7:	48 8b 55 20          	mov    0x20(%rbp),%rdx
   1400027cb:	48 89 10             	mov    %rdx,(%rax)
   1400027ce:	48 8b 45 f8          	mov    -0x8(%rbp),%rax
   1400027d2:	48 8b 55 18          	mov    0x18(%rbp),%rdx
   1400027d6:	48 89 50 08          	mov    %rdx,0x8(%rax)
   1400027da:	48 8b 45 f8          	mov    -0x8(%rbp),%rax
   1400027de:	48 c7 40 10 00 00 00 	movq   $0x0,0x10(%rax)
   1400027e5:	00 
   1400027e6:	48 83 7d f8 00       	cmpq   $0x0,-0x8(%rbp)
   1400027eb:	75 23                	jne    140002810 <type_union__add+0x166>
   1400027ed:	41 b8 8c 01 00 00    	mov    $0x18c,%r8d
   1400027f3:	48 8d 05 56 08 01 00 	lea    0x10856(%rip),%rax        # 140013050 <.rdata>
   1400027fa:	48 89 c2             	mov    %rax,%rdx
   1400027fd:	48 8d 05 94 0a 01 00 	lea    0x10a94(%rip),%rax        # 140013298 <.rdata+0x248>
   140002804:	48 89 c1             	mov    %rax,%rcx
   140002807:	48 8b 05 32 8b 01 00 	mov    0x18b32(%rip),%rax        # 14001b340 <__imp__assert>
   14000280e:	ff d0                	call   *%rax
   140002810:	48 8b 55 f8          	mov    -0x8(%rbp),%rdx
   140002814:	48 8b 45 10          	mov    0x10(%rbp),%rax
   140002818:	48 89 c1             	mov    %rax,%rcx
   14000281b:	e8 cd f5 ff ff       	call   140001ded <_type_union__update_member>
   140002820:	90                   	nop
   140002821:	48 83 c4 30          	add    $0x30,%rsp
   140002825:	5d                   	pop    %rbp
   140002826:	c3                   	ret

0000000140002827 <type_array__create>:
   140002827:	55                   	push   %rbp
   140002828:	48 89 e5             	mov    %rsp,%rbp
   14000282b:	48 83 ec 30          	sub    $0x30,%rsp
   14000282f:	48 89 4d 10          	mov    %rcx,0x10(%rbp)
   140002833:	48 89 55 18          	mov    %rdx,0x18(%rbp)
   140002837:	4c 89 45 20          	mov    %r8,0x20(%rbp)
   14000283b:	48 8b 45 18          	mov    0x18(%rbp),%rax
   14000283f:	48 89 c1             	mov    %rax,%rcx
   140002842:	e8 12 f9 ff ff       	call   140002159 <type__alignment>
   140002847:	48 8b 55 18          	mov    0x18(%rbp),%rdx
   14000284b:	48 8b 52 20          	mov    0x20(%rdx),%rdx
   14000284f:	48 39 c2             	cmp    %rax,%rdx
   140002852:	73 23                	jae    140002877 <type_array__create+0x50>
   140002854:	41 b8 93 01 00 00    	mov    $0x193,%r8d
   14000285a:	48 8d 05 ef 07 01 00 	lea    0x107ef(%rip),%rax        # 140013050 <.rdata>
   140002861:	48 89 c2             	mov    %rax,%rdx
   140002864:	48 8d 05 3d 0a 01 00 	lea    0x10a3d(%rip),%rax        # 1400132a8 <.rdata+0x258>
   14000286b:	48 89 c1             	mov    %rax,%rcx
   14000286e:	48 8b 05 cb 8a 01 00 	mov    0x18acb(%rip),%rax        # 14001b340 <__imp__assert>
   140002875:	ff d0                	call   *%rax
   140002877:	48 8b 45 10          	mov    0x10(%rbp),%rax
   14000287b:	ba 40 00 00 00       	mov    $0x40,%edx
   140002880:	48 89 c1             	mov    %rax,%rcx
   140002883:	e8 c2 f3 ff ff       	call   140001c4a <_type__create>
   140002888:	48 89 45 f8          	mov    %rax,-0x8(%rbp)
   14000288c:	48 8b 45 f8          	mov    -0x8(%rbp),%rax
   140002890:	c7 00 03 00 00 00    	movl   $0x3,(%rax)
   140002896:	48 8b 45 18          	mov    0x18(%rbp),%rax
   14000289a:	48 8b 50 10          	mov    0x10(%rax),%rdx
   14000289e:	48 8b 45 f8          	mov    -0x8(%rbp),%rax
   1400028a2:	48 89 50 10          	mov    %rdx,0x10(%rax)
   1400028a6:	48 8b 45 f8          	mov    -0x8(%rbp),%rax
   1400028aa:	48 c7 40 18 ff ff ff 	movq   $0xffffffffffffffff,0x18(%rax)
   1400028b1:	ff 
   1400028b2:	48 8b 45 18          	mov    0x18(%rbp),%rax
   1400028b6:	48 89 c1             	mov    %rax,%rcx
   1400028b9:	e8 ad f8 ff ff       	call   14000216b <type__size>
   1400028be:	48 0f af 45 20       	imul   0x20(%rbp),%rax
   1400028c3:	48 89 c2             	mov    %rax,%rdx
   1400028c6:	48 8b 45 f8          	mov    -0x8(%rbp),%rax
   1400028ca:	48 89 50 20          	mov    %rdx,0x20(%rax)
   1400028ce:	48 8b 45 f8          	mov    -0x8(%rbp),%rax
   1400028d2:	48 8b 55 18          	mov    0x18(%rbp),%rdx
   1400028d6:	48 89 50 30          	mov    %rdx,0x30(%rax)
   1400028da:	48 8b 45 f8          	mov    -0x8(%rbp),%rax
   1400028de:	48 8b 55 20          	mov    0x20(%rbp),%rdx
   1400028e2:	48 89 50 38          	mov    %rdx,0x38(%rax)
   1400028e6:	48 8b 45 f8          	mov    -0x8(%rbp),%rax
   1400028ea:	48 83 c4 30          	add    $0x30,%rsp
   1400028ee:	5d                   	pop    %rbp
   1400028ef:	c3                   	ret

00000001400028f0 <type_pointer__create>:
   1400028f0:	55                   	push   %rbp
   1400028f1:	48 89 e5             	mov    %rsp,%rbp
   1400028f4:	48 83 ec 30          	sub    $0x30,%rsp
   1400028f8:	48 89 4d 10          	mov    %rcx,0x10(%rbp)
   1400028fc:	48 89 55 18          	mov    %rdx,0x18(%rbp)
   140002900:	48 8b 45 10          	mov    0x10(%rbp),%rax
   140002904:	ba 38 00 00 00       	mov    $0x38,%edx
   140002909:	48 89 c1             	mov    %rax,%rcx
   14000290c:	e8 39 f3 ff ff       	call   140001c4a <_type__create>
   140002911:	48 89 45 f8          	mov    %rax,-0x8(%rbp)
   140002915:	48 8b 45 f8          	mov    -0x8(%rbp),%rax
   140002919:	c7 00 04 00 00 00    	movl   $0x4,(%rax)
   14000291f:	48 8b 45 f8          	mov    -0x8(%rbp),%rax
   140002923:	48 c7 40 10 08 00 00 	movq   $0x8,0x10(%rax)
   14000292a:	00 
   14000292b:	48 8b 45 f8          	mov    -0x8(%rbp),%rax
   14000292f:	48 c7 40 18 ff ff ff 	movq   $0xffffffffffffffff,0x18(%rax)
   140002936:	ff 
   140002937:	48 8b 45 f8          	mov    -0x8(%rbp),%rax
   14000293b:	48 c7 40 20 08 00 00 	movq   $0x8,0x20(%rax)
   140002942:	00 
   140002943:	48 8b 45 f8          	mov    -0x8(%rbp),%rax
   140002947:	48 8b 55 18          	mov    0x18(%rbp),%rdx
   14000294b:	48 89 50 30          	mov    %rdx,0x30(%rax)
   14000294f:	48 8b 45 f8          	mov    -0x8(%rbp),%rax
   140002953:	48 83 c4 30          	add    $0x30,%rsp
   140002957:	5d                   	pop    %rbp
   140002958:	c3                   	ret

0000000140002959 <type_enum__create>:
   140002959:	55                   	push   %rbp
   14000295a:	48 89 e5             	mov    %rsp,%rbp
   14000295d:	48 83 ec 30          	sub    $0x30,%rsp
   140002961:	48 89 4d 10          	mov    %rcx,0x10(%rbp)
   140002965:	48 8b 45 10          	mov    0x10(%rbp),%rax
   140002969:	ba 40 00 00 00       	mov    $0x40,%edx
   14000296e:	48 89 c1             	mov    %rax,%rcx
   140002971:	e8 d4 f2 ff ff       	call   140001c4a <_type__create>
   140002976:	48 89 45 f8          	mov    %rax,-0x8(%rbp)
   14000297a:	48 8b 45 f8          	mov    -0x8(%rbp),%rax
   14000297e:	c7 00 05 00 00 00    	movl   $0x5,(%rax)
   140002984:	48 8b 45 f8          	mov    -0x8(%rbp),%rax
   140002988:	48 c7 40 10 04 00 00 	movq   $0x4,0x10(%rax)
   14000298f:	00 
   140002990:	48 8b 45 f8          	mov    -0x8(%rbp),%rax
   140002994:	48 c7 40 18 ff ff ff 	movq   $0xffffffffffffffff,0x18(%rax)
   14000299b:	ff 
   14000299c:	48 8b 45 f8          	mov    -0x8(%rbp),%rax
   1400029a0:	48 c7 40 20 04 00 00 	movq   $0x4,0x20(%rax)
   1400029a7:	00 
   1400029a8:	48 8b 45 f8          	mov    -0x8(%rbp),%rax
   1400029ac:	48 83 c4 30          	add    $0x30,%rsp
   1400029b0:	5d                   	pop    %rbp
   1400029b1:	c3                   	ret

00000001400029b2 <_type_enum__add>:
   1400029b2:	55                   	push   %rbp
   1400029b3:	48 89 e5             	mov    %rsp,%rbp
   1400029b6:	48 83 ec 20          	sub    $0x20,%rsp
   1400029ba:	48 89 4d 10          	mov    %rcx,0x10(%rbp)
   1400029be:	48 89 55 18          	mov    %rdx,0x18(%rbp)
   1400029c2:	44 89 45 20          	mov    %r8d,0x20(%rbp)
   1400029c6:	48 8b 45 10          	mov    0x10(%rbp),%rax
   1400029ca:	8b 50 3c             	mov    0x3c(%rax),%edx
   1400029cd:	48 8b 45 10          	mov    0x10(%rbp),%rax
   1400029d1:	8b 40 38             	mov    0x38(%rax),%eax
   1400029d4:	39 c2                	cmp    %eax,%edx
   1400029d6:	75 71                	jne    140002a49 <_type_enum__add+0x97>
   1400029d8:	48 8b 45 10          	mov    0x10(%rbp),%rax
   1400029dc:	8b 40 38             	mov    0x38(%rax),%eax
   1400029df:	85 c0                	test   %eax,%eax
   1400029e1:	75 2d                	jne    140002a10 <_type_enum__add+0x5e>
   1400029e3:	48 8b 45 10          	mov    0x10(%rbp),%rax
   1400029e7:	c7 40 38 08 00 00 00 	movl   $0x8,0x38(%rax)
   1400029ee:	48 8b 45 10          	mov    0x10(%rbp),%rax
   1400029f2:	8b 40 38             	mov    0x38(%rax),%eax
   1400029f5:	89 c0                	mov    %eax,%eax
   1400029f7:	48 c1 e0 04          	shl    $0x4,%rax
   1400029fb:	48 89 c1             	mov    %rax,%rcx
   1400029fe:	e8 6d f0 00 00       	call   140011a70 <malloc>
   140002a03:	48 89 c2             	mov    %rax,%rdx
   140002a06:	48 8b 45 10          	mov    0x10(%rbp),%rax
   140002a0a:	48 89 50 30          	mov    %rdx,0x30(%rax)
   140002a0e:	eb 39                	jmp    140002a49 <_type_enum__add+0x97>
   140002a10:	48 8b 45 10          	mov    0x10(%rbp),%rax
   140002a14:	8b 40 38             	mov    0x38(%rax),%eax
   140002a17:	8d 14 00             	lea    (%rax,%rax,1),%edx
   140002a1a:	48 8b 45 10          	mov    0x10(%rbp),%rax
   140002a1e:	89 50 38             	mov    %edx,0x38(%rax)
   140002a21:	48 8b 45 10          	mov    0x10(%rbp),%rax
   140002a25:	8b 40 38             	mov    0x38(%rax),%eax
   140002a28:	89 c0                	mov    %eax,%eax
   140002a2a:	48 c1 e0 04          	shl    $0x4,%rax
   140002a2e:	48 89 c2             	mov    %rax,%rdx
   140002a31:	48 8b 45 10          	mov    0x10(%rbp),%rax
   140002a35:	48 8b 40 30          	mov    0x30(%rax),%rax
   140002a39:	48 89 c1             	mov    %rax,%rcx
   140002a3c:	e8 57 f0 00 00       	call   140011a98 <realloc>
   140002a41:	48 8b 55 10          	mov    0x10(%rbp),%rdx
   140002a45:	48 89 42 30          	mov    %rax,0x30(%rdx)
   140002a49:	48 8b 45 10          	mov    0x10(%rbp),%rax
   140002a4d:	8b 50 3c             	mov    0x3c(%rax),%edx
   140002a50:	48 8b 45 10          	mov    0x10(%rbp),%rax
   140002a54:	8b 40 38             	mov    0x38(%rax),%eax
   140002a57:	39 c2                	cmp    %eax,%edx
   140002a59:	72 23                	jb     140002a7e <_type_enum__add+0xcc>
   140002a5b:	41 b8 c6 01 00 00    	mov    $0x1c6,%r8d
   140002a61:	48 8d 05 e8 05 01 00 	lea    0x105e8(%rip),%rax        # 140013050 <.rdata>
   140002a68:	48 89 c2             	mov    %rax,%rdx
   140002a6b:	48 8d 05 86 08 01 00 	lea    0x10886(%rip),%rax        # 1400132f8 <.rdata+0x2a8>
   140002a72:	48 89 c1             	mov    %rax,%rcx
   140002a75:	48 8b 05 c4 88 01 00 	mov    0x188c4(%rip),%rax        # 14001b340 <__imp__assert>
   140002a7c:	ff d0                	call   *%rax
   140002a7e:	48 8b 45 10          	mov    0x10(%rbp),%rax
   140002a82:	48 8b 50 30          	mov    0x30(%rax),%rdx
   140002a86:	48 8b 45 10          	mov    0x10(%rbp),%rax
   140002a8a:	8b 40 3c             	mov    0x3c(%rax),%eax
   140002a8d:	89 c0                	mov    %eax,%eax
   140002a8f:	48 c1 e0 04          	shl    $0x4,%rax
   140002a93:	48 01 c2             	add    %rax,%rdx
   140002a96:	48 8b 45 18          	mov    0x18(%rbp),%rax
   140002a9a:	48 89 02             	mov    %rax,(%rdx)
   140002a9d:	48 8b 45 10          	mov    0x10(%rbp),%rax
   140002aa1:	48 8b 50 30          	mov    0x30(%rax),%rdx
   140002aa5:	48 8b 45 10          	mov    0x10(%rbp),%rax
   140002aa9:	8b 40 3c             	mov    0x3c(%rax),%eax
   140002aac:	89 c0                	mov    %eax,%eax
   140002aae:	48 c1 e0 04          	shl    $0x4,%rax
   140002ab2:	48 01 c2             	add    %rax,%rdx
   140002ab5:	8b 45 20             	mov    0x20(%rbp),%eax
   140002ab8:	89 42 08             	mov    %eax,0x8(%rdx)
   140002abb:	48 8b 45 10          	mov    0x10(%rbp),%rax
   140002abf:	8b 40 3c             	mov    0x3c(%rax),%eax
   140002ac2:	8d 50 01             	lea    0x1(%rax),%edx
   140002ac5:	48 8b 45 10          	mov    0x10(%rbp),%rax
   140002ac9:	89 50 3c             	mov    %edx,0x3c(%rax)
   140002acc:	90                   	nop
   140002acd:	48 83 c4 20          	add    $0x20,%rsp
   140002ad1:	5d                   	pop    %rbp
   140002ad2:	c3                   	ret

0000000140002ad3 <type_enum__add>:
   140002ad3:	55                   	push   %rbp
   140002ad4:	48 89 e5             	mov    %rsp,%rbp
   140002ad7:	48 83 ec 20          	sub    $0x20,%rsp
   140002adb:	48 89 4d 10          	mov    %rcx,0x10(%rbp)
   140002adf:	48 89 55 18          	mov    %rdx,0x18(%rbp)
   140002ae3:	48 8b 45 10          	mov    0x10(%rbp),%rax
   140002ae7:	8b 40 38             	mov    0x38(%rax),%eax
   140002aea:	85 c0                	test   %eax,%eax
   140002aec:	75 18                	jne    140002b06 <type_enum__add+0x33>
   140002aee:	48 8b 55 18          	mov    0x18(%rbp),%rdx
   140002af2:	48 8b 45 10          	mov    0x10(%rbp),%rax
   140002af6:	41 b8 00 00 00 00    	mov    $0x0,%r8d
   140002afc:	48 89 c1             	mov    %rax,%rcx
   140002aff:	e8 ae fe ff ff       	call   1400029b2 <_type_enum__add>
   140002b04:	eb 62                	jmp    140002b68 <type_enum__add+0x95>
   140002b06:	48 8b 45 10          	mov    0x10(%rbp),%rax
   140002b0a:	8b 40 3c             	mov    0x3c(%rax),%eax
   140002b0d:	85 c0                	test   %eax,%eax
   140002b0f:	75 23                	jne    140002b34 <type_enum__add+0x61>
   140002b11:	41 b8 d0 01 00 00    	mov    $0x1d0,%r8d
   140002b17:	48 8d 05 32 05 01 00 	lea    0x10532(%rip),%rax        # 140013050 <.rdata>
   140002b1e:	48 89 c2             	mov    %rax,%rdx
   140002b21:	48 8d 05 f5 07 01 00 	lea    0x107f5(%rip),%rax        # 14001331d <.rdata+0x2cd>
   140002b28:	48 89 c1             	mov    %rax,%rcx
   140002b2b:	48 8b 05 0e 88 01 00 	mov    0x1880e(%rip),%rax        # 14001b340 <__imp__assert>
   140002b32:	ff d0                	call   *%rax
   140002b34:	48 8b 45 10          	mov    0x10(%rbp),%rax
   140002b38:	48 8b 50 30          	mov    0x30(%rax),%rdx
   140002b3c:	48 8b 45 10          	mov    0x10(%rbp),%rax
   140002b40:	8b 40 3c             	mov    0x3c(%rax),%eax
   140002b43:	83 e8 01             	sub    $0x1,%eax
   140002b46:	89 c0                	mov    %eax,%eax
   140002b48:	48 c1 e0 04          	shl    $0x4,%rax
   140002b4c:	48 01 d0             	add    %rdx,%rax
   140002b4f:	8b 40 08             	mov    0x8(%rax),%eax
   140002b52:	8d 48 01             	lea    0x1(%rax),%ecx
   140002b55:	48 8b 55 18          	mov    0x18(%rbp),%rdx
   140002b59:	48 8b 45 10          	mov    0x10(%rbp),%rax
   140002b5d:	41 89 c8             	mov    %ecx,%r8d
   140002b60:	48 89 c1             	mov    %rax,%rcx
   140002b63:	e8 4a fe ff ff       	call   1400029b2 <_type_enum__add>
   140002b68:	90                   	nop
   140002b69:	48 83 c4 20          	add    $0x20,%rsp
   140002b6d:	5d                   	pop    %rbp
   140002b6e:	c3                   	ret

0000000140002b6f <type_enum__add_with_value>:
   140002b6f:	55                   	push   %rbp
   140002b70:	48 89 e5             	mov    %rsp,%rbp
   140002b73:	48 83 ec 20          	sub    $0x20,%rsp
   140002b77:	48 89 4d 10          	mov    %rcx,0x10(%rbp)
   140002b7b:	48 89 55 18          	mov    %rdx,0x18(%rbp)
   140002b7f:	44 89 45 20          	mov    %r8d,0x20(%rbp)
   140002b83:	8b 4d 20             	mov    0x20(%rbp),%ecx
   140002b86:	48 8b 55 18          	mov    0x18(%rbp),%rdx
   140002b8a:	48 8b 45 10          	mov    0x10(%rbp),%rax
   140002b8e:	41 89 c8             	mov    %ecx,%r8d
   140002b91:	48 89 c1             	mov    %rax,%rcx
   140002b94:	e8 19 fe ff ff       	call   1400029b2 <_type_enum__add>
   140002b99:	90                   	nop
   140002b9a:	48 83 c4 20          	add    $0x20,%rsp
   140002b9e:	5d                   	pop    %rbp
   140002b9f:	c3                   	ret

0000000140002ba0 <type__member>:
   140002ba0:	55                   	push   %rbp
   140002ba1:	48 89 e5             	mov    %rsp,%rbp
   140002ba4:	48 83 ec 20          	sub    $0x20,%rsp
   140002ba8:	48 89 4d 10          	mov    %rcx,0x10(%rbp)
   140002bac:	48 89 55 18          	mov    %rdx,0x18(%rbp)
   140002bb0:	48 8b 45 10          	mov    0x10(%rbp),%rax
   140002bb4:	8b 00                	mov    (%rax),%eax
   140002bb6:	83 f8 02             	cmp    $0x2,%eax
   140002bb9:	75 12                	jne    140002bcd <type__member+0x2d>
   140002bbb:	48 8b 55 18          	mov    0x18(%rbp),%rdx
   140002bbf:	48 8b 45 10          	mov    0x10(%rbp),%rax
   140002bc3:	48 89 c1             	mov    %rax,%rcx
   140002bc6:	e8 57 f7 ff ff       	call   140002322 <type_union__member>
   140002bcb:	eb 22                	jmp    140002bef <type__member+0x4f>
   140002bcd:	48 8b 45 10          	mov    0x10(%rbp),%rax
   140002bd1:	8b 00                	mov    (%rax),%eax
   140002bd3:	83 f8 01             	cmp    $0x1,%eax
   140002bd6:	75 12                	jne    140002bea <type__member+0x4a>
   140002bd8:	48 8b 55 18          	mov    0x18(%rbp),%rdx
   140002bdc:	48 8b 45 10          	mov    0x10(%rbp),%rax
   140002be0:	48 89 c1             	mov    %rax,%rcx
   140002be3:	e8 bb f6 ff ff       	call   1400022a3 <type_struct__member>
   140002be8:	eb 05                	jmp    140002bef <type__member+0x4f>
   140002bea:	b8 00 00 00 00       	mov    $0x0,%eax
   140002bef:	48 83 c4 20          	add    $0x20,%rsp
   140002bf3:	5d                   	pop    %rbp
   140002bf4:	c3                   	ret

0000000140002bf5 <type__hash>:
   140002bf5:	55                   	push   %rbp
   140002bf6:	48 89 e5             	mov    %rsp,%rbp
   140002bf9:	48 89 4d 10          	mov    %rcx,0x10(%rbp)
   140002bfd:	48 8b 45 10          	mov    0x10(%rbp),%rax
   140002c01:	48 8b 40 28          	mov    0x28(%rax),%rax
   140002c05:	5d                   	pop    %rbp
   140002c06:	c3                   	ret

0000000140002c07 <type__max_alignment>:
   140002c07:	55                   	push   %rbp
   140002c08:	48 89 e5             	mov    %rsp,%rbp
   140002c0b:	48 89 4d 10          	mov    %rcx,0x10(%rbp)
   140002c0f:	48 8b 45 10          	mov    0x10(%rbp),%rax
   140002c13:	48 8b 40 18          	mov    0x18(%rax),%rax
   140002c17:	5d                   	pop    %rbp
   140002c18:	c3                   	ret

0000000140002c19 <_type__print_name>:
   140002c19:	55                   	push   %rbp
   140002c1a:	48 89 e5             	mov    %rsp,%rbp
   140002c1d:	48 83 ec 60          	sub    $0x60,%rsp
   140002c21:	48 89 4d 10          	mov    %rcx,0x10(%rbp)
   140002c25:	48 89 55 18          	mov    %rdx,0x18(%rbp)
   140002c29:	44 89 45 20          	mov    %r8d,0x20(%rbp)
   140002c2d:	4c 89 4d 28          	mov    %r9,0x28(%rbp)
   140002c31:	83 7d 20 00          	cmpl   $0x0,0x20(%rbp)
   140002c35:	75 2a                	jne    140002c61 <_type__print_name+0x48>
   140002c37:	48 8b 45 10          	mov    0x10(%rbp),%rax
   140002c3b:	48 8b 50 08          	mov    0x8(%rax),%rdx
   140002c3f:	48 8b 4d 28          	mov    0x28(%rbp),%rcx
   140002c43:	48 8b 45 18          	mov    0x18(%rbp),%rax
   140002c47:	49 89 c9             	mov    %rcx,%r9
   140002c4a:	49 89 d0             	mov    %rdx,%r8
   140002c4d:	48 8d 15 de 06 01 00 	lea    0x106de(%rip),%rdx        # 140013332 <.rdata+0x2e2>
   140002c54:	48 89 c1             	mov    %rax,%rcx
   140002c57:	e8 34 ea 00 00       	call   140011690 <fprintf>
   140002c5c:	e9 b0 05 00 00       	jmp    140003211 <_type__print_name+0x5f8>
   140002c61:	48 8b 45 10          	mov    0x10(%rbp),%rax
   140002c65:	48 89 c1             	mov    %rax,%rcx
   140002c68:	e8 ec f4 ff ff       	call   140002159 <type__alignment>
   140002c6d:	48 89 c1             	mov    %rax,%rcx
   140002c70:	48 8b 45 28          	mov    0x28(%rbp),%rax
   140002c74:	ba 00 00 00 00       	mov    $0x0,%edx
   140002c79:	48 f7 f1             	div    %rcx
   140002c7c:	48 89 d1             	mov    %rdx,%rcx
   140002c7f:	48 89 c8             	mov    %rcx,%rax
   140002c82:	48 85 c0             	test   %rax,%rax
   140002c85:	74 49                	je     140002cd0 <_type__print_name+0xb7>
   140002c87:	48 8b 45 10          	mov    0x10(%rbp),%rax
   140002c8b:	48 89 c1             	mov    %rax,%rcx
   140002c8e:	e8 74 ff ff ff       	call   140002c07 <type__max_alignment>
   140002c93:	48 89 c1             	mov    %rax,%rcx
   140002c96:	48 8b 45 28          	mov    0x28(%rbp),%rax
   140002c9a:	ba 00 00 00 00       	mov    $0x0,%edx
   140002c9f:	48 f7 f1             	div    %rcx
   140002ca2:	48 89 d1             	mov    %rdx,%rcx
   140002ca5:	48 89 c8             	mov    %rcx,%rax
   140002ca8:	48 85 c0             	test   %rax,%rax
   140002cab:	74 23                	je     140002cd0 <_type__print_name+0xb7>
   140002cad:	41 b8 f1 01 00 00    	mov    $0x1f1,%r8d
   140002cb3:	48 8d 05 96 03 01 00 	lea    0x10396(%rip),%rax        # 140013050 <.rdata>
   140002cba:	48 89 c2             	mov    %rax,%rdx
   140002cbd:	48 8d 05 74 06 01 00 	lea    0x10674(%rip),%rax        # 140013338 <.rdata+0x2e8>
   140002cc4:	48 89 c1             	mov    %rax,%rcx
   140002cc7:	48 8b 05 72 86 01 00 	mov    0x18672(%rip),%rax        # 14001b340 <__imp__assert>
   140002cce:	ff d0                	call   *%rax
   140002cd0:	48 8b 45 10          	mov    0x10(%rbp),%rax
   140002cd4:	8b 00                	mov    (%rax),%eax
   140002cd6:	83 f8 05             	cmp    $0x5,%eax
   140002cd9:	0f 87 0e 05 00 00    	ja     1400031ed <_type__print_name+0x5d4>
   140002cdf:	89 c0                	mov    %eax,%eax
   140002ce1:	48 8d 14 85 00 00 00 	lea    0x0(,%rax,4),%rdx
   140002ce8:	00 
   140002ce9:	48 8d 05 28 07 01 00 	lea    0x10728(%rip),%rax        # 140013418 <.rdata+0x3c8>
   140002cf0:	8b 04 02             	mov    (%rdx,%rax,1),%eax
   140002cf3:	48 98                	cltq
   140002cf5:	48 8d 15 1c 07 01 00 	lea    0x1071c(%rip),%rdx        # 140013418 <.rdata+0x3c8>
   140002cfc:	48 01 d0             	add    %rdx,%rax
   140002cff:	ff e0                	jmp    *%rax
   140002d01:	48 8b 45 10          	mov    0x10(%rbp),%rax
   140002d05:	48 89 45 c0          	mov    %rax,-0x40(%rbp)
   140002d09:	48 8b 45 c0          	mov    -0x40(%rbp),%rax
   140002d0d:	48 8b 40 38          	mov    0x38(%rax),%rax
   140002d11:	48 8b 55 18          	mov    0x18(%rbp),%rdx
   140002d15:	48 89 c1             	mov    %rax,%rcx
   140002d18:	e8 3b ed 00 00       	call   140011a58 <fputs>
   140002d1d:	e9 ef 04 00 00       	jmp    140003211 <_type__print_name+0x5f8>
   140002d22:	48 8b 45 10          	mov    0x10(%rbp),%rax
   140002d26:	48 89 45 c8          	mov    %rax,-0x38(%rbp)
   140002d2a:	48 8b 45 18          	mov    0x18(%rbp),%rax
   140002d2e:	48 89 c2             	mov    %rax,%rdx
   140002d31:	b9 7b 00 00 00       	mov    $0x7b,%ecx
   140002d36:	e8 15 ed 00 00       	call   140011a50 <fputc>
   140002d3b:	c7 45 fc 00 00 00 00 	movl   $0x0,-0x4(%rbp)
   140002d42:	e9 92 01 00 00       	jmp    140002ed9 <_type__print_name+0x2c0>
   140002d47:	48 8b 45 c8          	mov    -0x38(%rbp),%rax
   140002d4b:	48 8b 48 30          	mov    0x30(%rax),%rcx
   140002d4f:	8b 55 fc             	mov    -0x4(%rbp),%edx
   140002d52:	48 89 d0             	mov    %rdx,%rax
   140002d55:	48 01 c0             	add    %rax,%rax
   140002d58:	48 01 d0             	add    %rdx,%rax
   140002d5b:	48 c1 e0 03          	shl    $0x3,%rax
   140002d5f:	48 01 c8             	add    %rcx,%rax
   140002d62:	48 8b 40 08          	mov    0x8(%rax),%rax
   140002d66:	48 89 c1             	mov    %rax,%rcx
   140002d69:	e8 eb f3 ff ff       	call   140002159 <type__alignment>
   140002d6e:	48 89 c1             	mov    %rax,%rcx
   140002d71:	48 8b 45 28          	mov    0x28(%rbp),%rax
   140002d75:	ba 00 00 00 00       	mov    $0x0,%edx
   140002d7a:	48 f7 f1             	div    %rcx
   140002d7d:	48 89 d1             	mov    %rdx,%rcx
   140002d80:	48 89 c8             	mov    %rcx,%rax
   140002d83:	48 85 c0             	test   %rax,%rax
   140002d86:	74 49                	je     140002dd1 <_type__print_name+0x1b8>
   140002d88:	48 8b 45 10          	mov    0x10(%rbp),%rax
   140002d8c:	48 89 c1             	mov    %rax,%rcx
   140002d8f:	e8 73 fe ff ff       	call   140002c07 <type__max_alignment>
   140002d94:	48 89 c1             	mov    %rax,%rcx
   140002d97:	48 8b 45 28          	mov    0x28(%rbp),%rax
   140002d9b:	ba 00 00 00 00       	mov    $0x0,%edx
   140002da0:	48 f7 f1             	div    %rcx
   140002da3:	48 89 d1             	mov    %rdx,%rcx
   140002da6:	48 89 c8             	mov    %rcx,%rax
   140002da9:	48 85 c0             	test   %rax,%rax
   140002dac:	74 23                	je     140002dd1 <_type__print_name+0x1b8>
   140002dae:	41 b8 ff 01 00 00    	mov    $0x1ff,%r8d
   140002db4:	48 8d 05 95 02 01 00 	lea    0x10295(%rip),%rax        # 140013050 <.rdata>
   140002dbb:	48 89 c2             	mov    %rax,%rdx
   140002dbe:	48 8d 05 c3 05 01 00 	lea    0x105c3(%rip),%rax        # 140013388 <.rdata+0x338>
   140002dc5:	48 89 c1             	mov    %rax,%rcx
   140002dc8:	48 8b 05 71 85 01 00 	mov    0x18571(%rip),%rax        # 14001b340 <__imp__assert>
   140002dcf:	ff d0                	call   *%rax
   140002dd1:	48 8b 55 28          	mov    0x28(%rbp),%rdx
   140002dd5:	48 8b 45 18          	mov    0x18(%rbp),%rax
   140002dd9:	49 89 d0             	mov    %rdx,%r8
   140002ddc:	48 8d 15 17 06 01 00 	lea    0x10617(%rip),%rdx        # 1400133fa <.rdata+0x3aa>
   140002de3:	48 89 c1             	mov    %rax,%rcx
   140002de6:	e8 a5 e8 00 00       	call   140011690 <fprintf>
   140002deb:	8b 45 20             	mov    0x20(%rbp),%eax
   140002dee:	44 8d 40 ff          	lea    -0x1(%rax),%r8d
   140002df2:	48 8b 45 c8          	mov    -0x38(%rbp),%rax
   140002df6:	48 8b 48 30          	mov    0x30(%rax),%rcx
   140002dfa:	8b 55 fc             	mov    -0x4(%rbp),%edx
   140002dfd:	48 89 d0             	mov    %rdx,%rax
   140002e00:	48 01 c0             	add    %rax,%rax
   140002e03:	48 01 d0             	add    %rdx,%rax
   140002e06:	48 c1 e0 03          	shl    $0x3,%rax
   140002e0a:	48 01 c8             	add    %rcx,%rax
   140002e0d:	48 8b 40 08          	mov    0x8(%rax),%rax
   140002e11:	48 8b 4d 28          	mov    0x28(%rbp),%rcx
   140002e15:	48 8b 55 18          	mov    0x18(%rbp),%rdx
   140002e19:	49 89 c9             	mov    %rcx,%r9
   140002e1c:	48 89 c1             	mov    %rax,%rcx
   140002e1f:	e8 f5 fd ff ff       	call   140002c19 <_type__print_name>
   140002e24:	48 8b 45 c8          	mov    -0x38(%rbp),%rax
   140002e28:	48 8b 48 30          	mov    0x30(%rax),%rcx
   140002e2c:	8b 55 fc             	mov    -0x4(%rbp),%edx
   140002e2f:	48 89 d0             	mov    %rdx,%rax
   140002e32:	48 01 c0             	add    %rax,%rax
   140002e35:	48 01 d0             	add    %rdx,%rax
   140002e38:	48 c1 e0 03          	shl    $0x3,%rax
   140002e3c:	48 01 c8             	add    %rcx,%rax
   140002e3f:	48 8b 10             	mov    (%rax),%rdx
   140002e42:	48 8b 45 18          	mov    0x18(%rbp),%rax
   140002e46:	49 89 d0             	mov    %rdx,%r8
   140002e49:	48 8d 15 b1 05 01 00 	lea    0x105b1(%rip),%rdx        # 140013401 <.rdata+0x3b1>
   140002e50:	48 89 c1             	mov    %rax,%rcx
   140002e53:	e8 38 e8 00 00       	call   140011690 <fprintf>
   140002e58:	48 8b 45 c8          	mov    -0x38(%rbp),%rax
   140002e5c:	8b 40 3c             	mov    0x3c(%rax),%eax
   140002e5f:	83 e8 01             	sub    $0x1,%eax
   140002e62:	39 45 fc             	cmp    %eax,-0x4(%rbp)
   140002e65:	73 6e                	jae    140002ed5 <_type__print_name+0x2bc>
   140002e67:	48 8b 45 18          	mov    0x18(%rbp),%rax
   140002e6b:	49 89 c1             	mov    %rax,%r9
   140002e6e:	41 b8 02 00 00 00    	mov    $0x2,%r8d
   140002e74:	ba 01 00 00 00       	mov    $0x1,%edx
   140002e79:	48 8d 05 d6 02 01 00 	lea    0x102d6(%rip),%rax        # 140013156 <.rdata+0x106>
   140002e80:	48 89 c1             	mov    %rax,%rcx
   140002e83:	e8 e0 eb 00 00       	call   140011a68 <fwrite>
   140002e88:	48 8b 45 c8          	mov    -0x38(%rbp),%rax
   140002e8c:	48 8b 50 30          	mov    0x30(%rax),%rdx
   140002e90:	8b 45 fc             	mov    -0x4(%rbp),%eax
   140002e93:	83 c0 01             	add    $0x1,%eax
   140002e96:	89 c1                	mov    %eax,%ecx
   140002e98:	48 89 c8             	mov    %rcx,%rax
   140002e9b:	48 01 c0             	add    %rax,%rax
   140002e9e:	48 01 c8             	add    %rcx,%rax
   140002ea1:	48 c1 e0 03          	shl    $0x3,%rax
   140002ea5:	48 01 d0             	add    %rdx,%rax
   140002ea8:	48 8b 48 10          	mov    0x10(%rax),%rcx
   140002eac:	48 8b 45 c8          	mov    -0x38(%rbp),%rax
   140002eb0:	4c 8b 40 30          	mov    0x30(%rax),%r8
   140002eb4:	8b 55 fc             	mov    -0x4(%rbp),%edx
   140002eb7:	48 89 d0             	mov    %rdx,%rax
   140002eba:	48 01 c0             	add    %rax,%rax
   140002ebd:	48 01 d0             	add    %rdx,%rax
   140002ec0:	48 c1 e0 03          	shl    $0x3,%rax
   140002ec4:	4c 01 c0             	add    %r8,%rax
   140002ec7:	48 8b 40 10          	mov    0x10(%rax),%rax
   140002ecb:	48 29 c1             	sub    %rax,%rcx
   140002ece:	48 89 ca             	mov    %rcx,%rdx
   140002ed1:	48 01 55 28          	add    %rdx,0x28(%rbp)
   140002ed5:	83 45 fc 01          	addl   $0x1,-0x4(%rbp)
   140002ed9:	48 8b 45 c8          	mov    -0x38(%rbp),%rax
   140002edd:	8b 40 3c             	mov    0x3c(%rax),%eax
   140002ee0:	39 45 fc             	cmp    %eax,-0x4(%rbp)
   140002ee3:	0f 82 5e fe ff ff    	jb     140002d47 <_type__print_name+0x12e>
   140002ee9:	48 8b 45 18          	mov    0x18(%rbp),%rax
   140002eed:	48 89 c2             	mov    %rax,%rdx
   140002ef0:	b9 7d 00 00 00       	mov    $0x7d,%ecx
   140002ef5:	e8 56 eb 00 00       	call   140011a50 <fputc>
   140002efa:	e9 12 03 00 00       	jmp    140003211 <_type__print_name+0x5f8>
   140002eff:	48 8b 45 10          	mov    0x10(%rbp),%rax
   140002f03:	48 89 45 d0          	mov    %rax,-0x30(%rbp)
   140002f07:	48 8b 45 18          	mov    0x18(%rbp),%rax
   140002f0b:	48 89 c2             	mov    %rax,%rdx
   140002f0e:	b9 7c 00 00 00       	mov    $0x7c,%ecx
   140002f13:	e8 38 eb 00 00       	call   140011a50 <fputc>
   140002f18:	c7 45 f8 00 00 00 00 	movl   $0x0,-0x8(%rbp)
   140002f1f:	e9 bb 00 00 00       	jmp    140002fdf <_type__print_name+0x3c6>
   140002f24:	8b 45 20             	mov    0x20(%rbp),%eax
   140002f27:	44 8d 40 ff          	lea    -0x1(%rax),%r8d
   140002f2b:	48 8b 45 d0          	mov    -0x30(%rbp),%rax
   140002f2f:	48 8b 48 40          	mov    0x40(%rax),%rcx
   140002f33:	8b 55 f8             	mov    -0x8(%rbp),%edx
   140002f36:	48 89 d0             	mov    %rdx,%rax
   140002f39:	48 01 c0             	add    %rax,%rax
   140002f3c:	48 01 d0             	add    %rdx,%rax
   140002f3f:	48 c1 e0 03          	shl    $0x3,%rax
   140002f43:	48 01 c8             	add    %rcx,%rax
   140002f46:	48 8b 40 08          	mov    0x8(%rax),%rax
   140002f4a:	48 8b 4d 28          	mov    0x28(%rbp),%rcx
   140002f4e:	48 8b 55 18          	mov    0x18(%rbp),%rdx
   140002f52:	49 89 c9             	mov    %rcx,%r9
   140002f55:	48 89 c1             	mov    %rax,%rcx
   140002f58:	e8 bc fc ff ff       	call   140002c19 <_type__print_name>
   140002f5d:	48 8b 45 d0          	mov    -0x30(%rbp),%rax
   140002f61:	48 8b 48 40          	mov    0x40(%rax),%rcx
   140002f65:	8b 55 f8             	mov    -0x8(%rbp),%edx
   140002f68:	48 89 d0             	mov    %rdx,%rax
   140002f6b:	48 01 c0             	add    %rax,%rax
   140002f6e:	48 01 d0             	add    %rdx,%rax
   140002f71:	48 c1 e0 03          	shl    $0x3,%rax
   140002f75:	48 01 c8             	add    %rcx,%rax
   140002f78:	48 8b 10             	mov    (%rax),%rdx
   140002f7b:	48 8b 45 18          	mov    0x18(%rbp),%rax
   140002f7f:	49 89 d0             	mov    %rdx,%r8
   140002f82:	48 8d 15 78 04 01 00 	lea    0x10478(%rip),%rdx        # 140013401 <.rdata+0x3b1>
   140002f89:	48 89 c1             	mov    %rax,%rcx
   140002f8c:	e8 ff e6 00 00       	call   140011690 <fprintf>
   140002f91:	48 8b 55 28          	mov    0x28(%rbp),%rdx
   140002f95:	48 8b 45 18          	mov    0x18(%rbp),%rax
   140002f99:	49 89 d0             	mov    %rdx,%r8
   140002f9c:	48 8d 15 62 04 01 00 	lea    0x10462(%rip),%rdx        # 140013405 <.rdata+0x3b5>
   140002fa3:	48 89 c1             	mov    %rax,%rcx
   140002fa6:	e8 e5 e6 00 00       	call   140011690 <fprintf>
   140002fab:	48 8b 45 d0          	mov    -0x30(%rbp),%rax
   140002faf:	8b 40 4c             	mov    0x4c(%rax),%eax
   140002fb2:	83 e8 01             	sub    $0x1,%eax
   140002fb5:	39 45 f8             	cmp    %eax,-0x8(%rbp)
   140002fb8:	73 21                	jae    140002fdb <_type__print_name+0x3c2>
   140002fba:	48 8b 45 18          	mov    0x18(%rbp),%rax
   140002fbe:	49 89 c1             	mov    %rax,%r9
   140002fc1:	41 b8 02 00 00 00    	mov    $0x2,%r8d
   140002fc7:	ba 01 00 00 00       	mov    $0x1,%edx
   140002fcc:	48 8d 05 83 01 01 00 	lea    0x10183(%rip),%rax        # 140013156 <.rdata+0x106>
   140002fd3:	48 89 c1             	mov    %rax,%rcx
   140002fd6:	e8 8d ea 00 00       	call   140011a68 <fwrite>
   140002fdb:	83 45 f8 01          	addl   $0x1,-0x8(%rbp)
   140002fdf:	48 8b 45 d0          	mov    -0x30(%rbp),%rax
   140002fe3:	8b 40 4c             	mov    0x4c(%rax),%eax
   140002fe6:	39 45 f8             	cmp    %eax,-0x8(%rbp)
   140002fe9:	0f 82 35 ff ff ff    	jb     140002f24 <_type__print_name+0x30b>
   140002fef:	48 8b 45 18          	mov    0x18(%rbp),%rax
   140002ff3:	49 89 c1             	mov    %rax,%r9
   140002ff6:	41 b8 05 00 00 00    	mov    $0x5,%r8d
   140002ffc:	ba 01 00 00 00       	mov    $0x1,%edx
   140003001:	48 8d 05 51 01 01 00 	lea    0x10151(%rip),%rax        # 140013159 <.rdata+0x109>
   140003008:	48 89 c1             	mov    %rax,%rcx
   14000300b:	e8 58 ea 00 00       	call   140011a68 <fwrite>
   140003010:	8b 45 20             	mov    0x20(%rbp),%eax
   140003013:	44 8d 40 ff          	lea    -0x1(%rax),%r8d
   140003017:	48 8b 45 d0          	mov    -0x30(%rbp),%rax
   14000301b:	48 8b 40 38          	mov    0x38(%rax),%rax
   14000301f:	48 8b 40 08          	mov    0x8(%rax),%rax
   140003023:	48 8b 4d 28          	mov    0x28(%rbp),%rcx
   140003027:	48 8b 55 18          	mov    0x18(%rbp),%rdx
   14000302b:	49 89 c9             	mov    %rcx,%r9
   14000302e:	48 89 c1             	mov    %rax,%rcx
   140003031:	e8 e3 fb ff ff       	call   140002c19 <_type__print_name>
   140003036:	48 8b 45 d0          	mov    -0x30(%rbp),%rax
   14000303a:	48 8b 40 38          	mov    0x38(%rax),%rax
   14000303e:	48 8b 10             	mov    (%rax),%rdx
   140003041:	48 8b 45 18          	mov    0x18(%rbp),%rax
   140003045:	49 89 d0             	mov    %rdx,%r8
   140003048:	48 8d 15 b2 03 01 00 	lea    0x103b2(%rip),%rdx        # 140013401 <.rdata+0x3b1>
   14000304f:	48 89 c1             	mov    %rax,%rcx
   140003052:	e8 39 e6 00 00       	call   140011690 <fprintf>
   140003057:	48 8b 55 28          	mov    0x28(%rbp),%rdx
   14000305b:	48 8b 45 18          	mov    0x18(%rbp),%rax
   14000305f:	49 89 d0             	mov    %rdx,%r8
   140003062:	48 8d 15 9c 03 01 00 	lea    0x1039c(%rip),%rdx        # 140013405 <.rdata+0x3b5>
   140003069:	48 89 c1             	mov    %rax,%rcx
   14000306c:	e8 1f e6 00 00       	call   140011690 <fprintf>
   140003071:	48 8b 45 18          	mov    0x18(%rbp),%rax
   140003075:	48 89 c2             	mov    %rax,%rdx
   140003078:	b9 7c 00 00 00       	mov    $0x7c,%ecx
   14000307d:	e8 ce e9 00 00       	call   140011a50 <fputc>
   140003082:	e9 8a 01 00 00       	jmp    140003211 <_type__print_name+0x5f8>
   140003087:	48 8b 45 10          	mov    0x10(%rbp),%rax
   14000308b:	48 89 45 d8          	mov    %rax,-0x28(%rbp)
   14000308f:	48 8b 45 d8          	mov    -0x28(%rbp),%rax
   140003093:	48 8b 50 38          	mov    0x38(%rax),%rdx
   140003097:	48 8b 45 18          	mov    0x18(%rbp),%rax
   14000309b:	49 89 d0             	mov    %rdx,%r8
   14000309e:	48 8d 15 66 03 01 00 	lea    0x10366(%rip),%rdx        # 14001340b <.rdata+0x3bb>
   1400030a5:	48 89 c1             	mov    %rax,%rcx
   1400030a8:	e8 e3 e5 00 00       	call   140011690 <fprintf>
   1400030ad:	8b 45 20             	mov    0x20(%rbp),%eax
   1400030b0:	44 8d 40 ff          	lea    -0x1(%rax),%r8d
   1400030b4:	48 8b 45 d8          	mov    -0x28(%rbp),%rax
   1400030b8:	48 8b 40 30          	mov    0x30(%rax),%rax
   1400030bc:	48 8b 4d 28          	mov    0x28(%rbp),%rcx
   1400030c0:	48 8b 55 18          	mov    0x18(%rbp),%rdx
   1400030c4:	49 89 c9             	mov    %rcx,%r9
   1400030c7:	48 89 c1             	mov    %rax,%rcx
   1400030ca:	e8 4a fb ff ff       	call   140002c19 <_type__print_name>
   1400030cf:	48 8b 45 18          	mov    0x18(%rbp),%rax
   1400030d3:	48 89 c2             	mov    %rax,%rdx
   1400030d6:	b9 5d 00 00 00       	mov    $0x5d,%ecx
   1400030db:	e8 70 e9 00 00       	call   140011a50 <fputc>
   1400030e0:	e9 2c 01 00 00       	jmp    140003211 <_type__print_name+0x5f8>
   1400030e5:	48 8b 45 10          	mov    0x10(%rbp),%rax
   1400030e9:	48 89 45 e0          	mov    %rax,-0x20(%rbp)
   1400030ed:	8b 45 20             	mov    0x20(%rbp),%eax
   1400030f0:	44 8d 40 ff          	lea    -0x1(%rax),%r8d
   1400030f4:	48 8b 45 e0          	mov    -0x20(%rbp),%rax
   1400030f8:	48 8b 40 30          	mov    0x30(%rax),%rax
   1400030fc:	48 8b 4d 28          	mov    0x28(%rbp),%rcx
   140003100:	48 8b 55 18          	mov    0x18(%rbp),%rdx
   140003104:	49 89 c9             	mov    %rcx,%r9
   140003107:	48 89 c1             	mov    %rax,%rcx
   14000310a:	e8 0a fb ff ff       	call   140002c19 <_type__print_name>
   14000310f:	48 8b 45 18          	mov    0x18(%rbp),%rax
   140003113:	48 89 c2             	mov    %rax,%rdx
   140003116:	b9 2a 00 00 00       	mov    $0x2a,%ecx
   14000311b:	e8 30 e9 00 00       	call   140011a50 <fputc>
   140003120:	e9 ec 00 00 00       	jmp    140003211 <_type__print_name+0x5f8>
   140003125:	48 8b 45 10          	mov    0x10(%rbp),%rax
   140003129:	48 89 45 e8          	mov    %rax,-0x18(%rbp)
   14000312d:	48 8b 45 18          	mov    0x18(%rbp),%rax
   140003131:	48 89 c2             	mov    %rax,%rdx
   140003134:	b9 3c 00 00 00       	mov    $0x3c,%ecx
   140003139:	e8 12 e9 00 00       	call   140011a50 <fputc>
   14000313e:	c7 45 f4 00 00 00 00 	movl   $0x0,-0xc(%rbp)
   140003145:	e9 80 00 00 00       	jmp    1400031ca <_type__print_name+0x5b1>
   14000314a:	48 8b 45 e8          	mov    -0x18(%rbp),%rax
   14000314e:	48 8b 40 30          	mov    0x30(%rax),%rax
   140003152:	8b 55 f4             	mov    -0xc(%rbp),%edx
   140003155:	48 c1 e2 04          	shl    $0x4,%rdx
   140003159:	48 01 d0             	add    %rdx,%rax
   14000315c:	48 8b 00             	mov    (%rax),%rax
   14000315f:	48 8b 55 18          	mov    0x18(%rbp),%rdx
   140003163:	48 89 c1             	mov    %rax,%rcx
   140003166:	e8 ed e8 00 00       	call   140011a58 <fputs>
   14000316b:	48 8b 45 e8          	mov    -0x18(%rbp),%rax
   14000316f:	48 8b 40 30          	mov    0x30(%rax),%rax
   140003173:	8b 55 f4             	mov    -0xc(%rbp),%edx
   140003176:	48 c1 e2 04          	shl    $0x4,%rdx
   14000317a:	48 01 d0             	add    %rdx,%rax
   14000317d:	8b 50 08             	mov    0x8(%rax),%edx
   140003180:	48 8b 45 18          	mov    0x18(%rbp),%rax
   140003184:	41 89 d0             	mov    %edx,%r8d
   140003187:	48 8d 15 85 02 01 00 	lea    0x10285(%rip),%rdx        # 140013413 <.rdata+0x3c3>
   14000318e:	48 89 c1             	mov    %rax,%rcx
   140003191:	e8 fa e4 00 00       	call   140011690 <fprintf>
   140003196:	48 8b 45 e8          	mov    -0x18(%rbp),%rax
   14000319a:	8b 40 3c             	mov    0x3c(%rax),%eax
   14000319d:	83 e8 01             	sub    $0x1,%eax
   1400031a0:	39 45 f4             	cmp    %eax,-0xc(%rbp)
   1400031a3:	73 21                	jae    1400031c6 <_type__print_name+0x5ad>
   1400031a5:	48 8b 45 18          	mov    0x18(%rbp),%rax
   1400031a9:	49 89 c1             	mov    %rax,%r9
   1400031ac:	41 b8 02 00 00 00    	mov    $0x2,%r8d
   1400031b2:	ba 01 00 00 00       	mov    $0x1,%edx
   1400031b7:	48 8d 05 98 ff 00 00 	lea    0xff98(%rip),%rax        # 140013156 <.rdata+0x106>
   1400031be:	48 89 c1             	mov    %rax,%rcx
   1400031c1:	e8 a2 e8 00 00       	call   140011a68 <fwrite>
   1400031c6:	83 45 f4 01          	addl   $0x1,-0xc(%rbp)
   1400031ca:	48 8b 45 e8          	mov    -0x18(%rbp),%rax
   1400031ce:	8b 40 3c             	mov    0x3c(%rax),%eax
   1400031d1:	39 45 f4             	cmp    %eax,-0xc(%rbp)
   1400031d4:	0f 82 70 ff ff ff    	jb     14000314a <_type__print_name+0x531>
   1400031da:	48 8b 45 18          	mov    0x18(%rbp),%rax
   1400031de:	48 89 c2             	mov    %rax,%rdx
   1400031e1:	b9 3e 00 00 00       	mov    $0x3e,%ecx
   1400031e6:	e8 65 e8 00 00       	call   140011a50 <fputc>
   1400031eb:	eb 24                	jmp    140003211 <_type__print_name+0x5f8>
   1400031ed:	41 b8 36 02 00 00    	mov    $0x236,%r8d
   1400031f3:	48 8d 05 56 fe 00 00 	lea    0xfe56(%rip),%rax        # 140013050 <.rdata>
   1400031fa:	48 89 c2             	mov    %rax,%rdx
   1400031fd:	48 8d 05 68 ff 00 00 	lea    0xff68(%rip),%rax        # 14001316c <.rdata+0x11c>
   140003204:	48 89 c1             	mov    %rax,%rcx
   140003207:	48 8b 05 32 81 01 00 	mov    0x18132(%rip),%rax        # 14001b340 <__imp__assert>
   14000320e:	ff d0                	call   *%rax
   140003210:	90                   	nop
   140003211:	48 83 c4 60          	add    $0x60,%rsp
   140003215:	5d                   	pop    %rbp
   140003216:	c3                   	ret

0000000140003217 <_type__print_size>:
   140003217:	55                   	push   %rbp
   140003218:	48 89 e5             	mov    %rsp,%rbp
   14000321b:	48 83 ec 20          	sub    $0x20,%rsp
   14000321f:	48 89 4d 10          	mov    %rcx,0x10(%rbp)
   140003223:	48 89 55 18          	mov    %rdx,0x18(%rbp)
   140003227:	48 8b 45 10          	mov    0x10(%rbp),%rax
   14000322b:	48 89 c1             	mov    %rax,%rcx
   14000322e:	e8 38 ef ff ff       	call   14000216b <type__size>
   140003233:	48 89 c2             	mov    %rax,%rdx
   140003236:	48 8b 45 18          	mov    0x18(%rbp),%rax
   14000323a:	49 89 d0             	mov    %rdx,%r8
   14000323d:	48 8d 15 ec 01 01 00 	lea    0x101ec(%rip),%rdx        # 140013430 <.rdata+0x3e0>
   140003244:	48 89 c1             	mov    %rax,%rcx
   140003247:	e8 44 e4 00 00       	call   140011690 <fprintf>
   14000324c:	90                   	nop
   14000324d:	48 83 c4 20          	add    $0x20,%rsp
   140003251:	5d                   	pop    %rbp
   140003252:	c3                   	ret

0000000140003253 <_type__print_alignment>:
   140003253:	55                   	push   %rbp
   140003254:	48 89 e5             	mov    %rsp,%rbp
   140003257:	48 83 ec 20          	sub    $0x20,%rsp
   14000325b:	48 89 4d 10          	mov    %rcx,0x10(%rbp)
   14000325f:	48 89 55 18          	mov    %rdx,0x18(%rbp)
   140003263:	48 8b 45 10          	mov    0x10(%rbp),%rax
   140003267:	48 8b 50 10          	mov    0x10(%rax),%rdx
   14000326b:	48 8b 45 18          	mov    0x18(%rbp),%rax
   14000326f:	49 89 d0             	mov    %rdx,%r8
   140003272:	48 8d 15 b7 01 01 00 	lea    0x101b7(%rip),%rdx        # 140013430 <.rdata+0x3e0>
   140003279:	48 89 c1             	mov    %rax,%rcx
   14000327c:	e8 0f e4 00 00       	call   140011690 <fprintf>
   140003281:	90                   	nop
   140003282:	48 83 c4 20          	add    $0x20,%rsp
   140003286:	5d                   	pop    %rbp
   140003287:	c3                   	ret

0000000140003288 <_type__print_max_alignment>:
   140003288:	55                   	push   %rbp
   140003289:	48 89 e5             	mov    %rsp,%rbp
   14000328c:	48 83 ec 20          	sub    $0x20,%rsp
   140003290:	48 89 4d 10          	mov    %rcx,0x10(%rbp)
   140003294:	48 89 55 18          	mov    %rdx,0x18(%rbp)
   140003298:	48 8b 45 10          	mov    0x10(%rbp),%rax
   14000329c:	48 8b 40 18          	mov    0x18(%rax),%rax
   1400032a0:	48 83 f8 ff          	cmp    $0xffffffffffffffff,%rax
   1400032a4:	75 13                	jne    1400032b9 <_type__print_max_alignment+0x31>
   1400032a6:	48 8b 45 18          	mov    0x18(%rbp),%rax
   1400032aa:	48 89 c2             	mov    %rax,%rdx
   1400032ad:	b9 2d 00 00 00       	mov    $0x2d,%ecx
   1400032b2:	e8 99 e7 00 00       	call   140011a50 <fputc>
   1400032b7:	eb 1e                	jmp    1400032d7 <_type__print_max_alignment+0x4f>
   1400032b9:	48 8b 45 10          	mov    0x10(%rbp),%rax
   1400032bd:	48 8b 50 18          	mov    0x18(%rax),%rdx
   1400032c1:	48 8b 45 18          	mov    0x18(%rbp),%rax
   1400032c5:	49 89 d0             	mov    %rdx,%r8
   1400032c8:	48 8d 15 61 01 01 00 	lea    0x10161(%rip),%rdx        # 140013430 <.rdata+0x3e0>
   1400032cf:	48 89 c1             	mov    %rax,%rcx
   1400032d2:	e8 b9 e3 00 00       	call   140011690 <fprintf>
   1400032d7:	90                   	nop
   1400032d8:	48 83 c4 20          	add    $0x20,%rsp
   1400032dc:	5d                   	pop    %rbp
   1400032dd:	c3                   	ret

00000001400032de <type__print>:
   1400032de:	55                   	push   %rbp
   1400032df:	48 81 ec 40 01 00 00 	sub    $0x140,%rsp
   1400032e6:	48 8d ac 24 80 00 00 	lea    0x80(%rsp),%rbp
   1400032ed:	00 
   1400032ee:	48 89 8d d0 00 00 00 	mov    %rcx,0xd0(%rbp)
   1400032f5:	48 89 95 d8 00 00 00 	mov    %rdx,0xd8(%rbp)
   1400032fc:	44 89 85 e0 00 00 00 	mov    %r8d,0xe0(%rbp)
   140003303:	44 89 8d e8 00 00 00 	mov    %r9d,0xe8(%rbp)
   14000330a:	c7 85 bc 00 00 00 00 	movl   $0x0,0xbc(%rbp)
   140003311:	00 00 00 
   140003314:	e9 8c 00 00 00       	jmp    1400033a5 <type__print+0xc7>
   140003319:	8b 95 bc 00 00 00    	mov    0xbc(%rbp),%edx
   14000331f:	48 8d 45 b0          	lea    -0x50(%rbp),%rax
   140003323:	41 89 d1             	mov    %edx,%r9d
   140003326:	4c 8d 05 08 01 01 00 	lea    0x10108(%rip),%r8        # 140013435 <.rdata+0x3e5>
   14000332d:	ba 00 01 00 00       	mov    $0x100,%edx
   140003332:	48 89 c1             	mov    %rax,%rcx
   140003335:	e8 96 e2 00 00       	call   1400115d0 <snprintf>
   14000333a:	48 8b 85 d8 00 00 00 	mov    0xd8(%rbp),%rax
   140003341:	48 8d 55 b0          	lea    -0x50(%rbp),%rdx
   140003345:	48 89 54 24 20       	mov    %rdx,0x20(%rsp)
   14000334a:	41 b9 16 00 00 00    	mov    $0x16,%r9d
   140003350:	41 b8 16 00 00 00    	mov    $0x16,%r8d
   140003356:	48 8d 15 f1 00 01 00 	lea    0x100f1(%rip),%rdx        # 14001344e <.rdata+0x3fe>
   14000335d:	48 89 c1             	mov    %rax,%rcx
   140003360:	e8 2b e3 00 00       	call   140011690 <fprintf>
   140003365:	8b 8d bc 00 00 00    	mov    0xbc(%rbp),%ecx
   14000336b:	48 8b 95 d8 00 00 00 	mov    0xd8(%rbp),%rdx
   140003372:	48 8b 85 d0 00 00 00 	mov    0xd0(%rbp),%rax
   140003379:	41 b9 00 00 00 00    	mov    $0x0,%r9d
   14000337f:	41 89 c8             	mov    %ecx,%r8d
   140003382:	48 89 c1             	mov    %rax,%rcx
   140003385:	e8 8f f8 ff ff       	call   140002c19 <_type__print_name>
   14000338a:	48 8b 85 d8 00 00 00 	mov    0xd8(%rbp),%rax
   140003391:	48 89 c2             	mov    %rax,%rdx
   140003394:	b9 0a 00 00 00       	mov    $0xa,%ecx
   140003399:	e8 b2 e6 00 00       	call   140011a50 <fputc>
   14000339e:	83 85 bc 00 00 00 01 	addl   $0x1,0xbc(%rbp)
   1400033a5:	8b 85 bc 00 00 00    	mov    0xbc(%rbp),%eax
   1400033ab:	39 85 e0 00 00 00    	cmp    %eax,0xe0(%rbp)
   1400033b1:	0f 83 62 ff ff ff    	jae    140003319 <type__print+0x3b>
   1400033b7:	48 8b 85 d8 00 00 00 	mov    0xd8(%rbp),%rax
   1400033be:	48 8d 15 90 00 01 00 	lea    0x10090(%rip),%rdx        # 140013455 <.rdata+0x405>
   1400033c5:	48 89 54 24 20       	mov    %rdx,0x20(%rsp)
   1400033ca:	41 b9 16 00 00 00    	mov    $0x16,%r9d
   1400033d0:	41 b8 16 00 00 00    	mov    $0x16,%r8d
   1400033d6:	48 8d 15 71 00 01 00 	lea    0x10071(%rip),%rdx        # 14001344e <.rdata+0x3fe>
   1400033dd:	48 89 c1             	mov    %rax,%rcx
   1400033e0:	e8 ab e2 00 00       	call   140011690 <fprintf>
   1400033e5:	48 8b 95 d8 00 00 00 	mov    0xd8(%rbp),%rdx
   1400033ec:	48 8b 85 d0 00 00 00 	mov    0xd0(%rbp),%rax
   1400033f3:	48 89 c1             	mov    %rax,%rcx
   1400033f6:	e8 1c fe ff ff       	call   140003217 <_type__print_size>
   1400033fb:	48 8b 85 d8 00 00 00 	mov    0xd8(%rbp),%rax
   140003402:	48 89 c2             	mov    %rax,%rdx
   140003405:	b9 0a 00 00 00       	mov    $0xa,%ecx
   14000340a:	e8 41 e6 00 00       	call   140011a50 <fputc>
   14000340f:	48 8b 85 d8 00 00 00 	mov    0xd8(%rbp),%rax
   140003416:	48 8d 15 3f 00 01 00 	lea    0x1003f(%rip),%rdx        # 14001345c <.rdata+0x40c>
   14000341d:	48 89 54 24 20       	mov    %rdx,0x20(%rsp)
   140003422:	41 b9 16 00 00 00    	mov    $0x16,%r9d
   140003428:	41 b8 16 00 00 00    	mov    $0x16,%r8d
   14000342e:	48 8d 15 19 00 01 00 	lea    0x10019(%rip),%rdx        # 14001344e <.rdata+0x3fe>
   140003435:	48 89 c1             	mov    %rax,%rcx
   140003438:	e8 53 e2 00 00       	call   140011690 <fprintf>
   14000343d:	48 8b 95 d8 00 00 00 	mov    0xd8(%rbp),%rdx
   140003444:	48 8b 85 d0 00 00 00 	mov    0xd0(%rbp),%rax
   14000344b:	48 89 c1             	mov    %rax,%rcx
   14000344e:	e8 00 fe ff ff       	call   140003253 <_type__print_alignment>
   140003453:	48 8b 85 d8 00 00 00 	mov    0xd8(%rbp),%rax
   14000345a:	48 89 c2             	mov    %rax,%rdx
   14000345d:	b9 0a 00 00 00       	mov    $0xa,%ecx
   140003462:	e8 e9 e5 00 00       	call   140011a50 <fputc>
   140003467:	48 8b 85 d8 00 00 00 	mov    0xd8(%rbp),%rax
   14000346e:	48 8d 15 f3 ff 00 00 	lea    0xfff3(%rip),%rdx        # 140013468 <.rdata+0x418>
   140003475:	48 89 54 24 20       	mov    %rdx,0x20(%rsp)
   14000347a:	41 b9 16 00 00 00    	mov    $0x16,%r9d
   140003480:	41 b8 16 00 00 00    	mov    $0x16,%r8d
   140003486:	48 8d 15 c1 ff 00 00 	lea    0xffc1(%rip),%rdx        # 14001344e <.rdata+0x3fe>
   14000348d:	48 89 c1             	mov    %rax,%rcx
   140003490:	e8 fb e1 00 00       	call   140011690 <fprintf>
   140003495:	48 8b 95 d8 00 00 00 	mov    0xd8(%rbp),%rdx
   14000349c:	48 8b 85 d0 00 00 00 	mov    0xd0(%rbp),%rax
   1400034a3:	48 89 c1             	mov    %rax,%rcx
   1400034a6:	e8 dd fd ff ff       	call   140003288 <_type__print_max_alignment>
   1400034ab:	48 8b 85 d8 00 00 00 	mov    0xd8(%rbp),%rax
   1400034b2:	48 89 c2             	mov    %rax,%rdx
   1400034b5:	b9 0a 00 00 00       	mov    $0xa,%ecx
   1400034ba:	e8 91 e5 00 00       	call   140011a50 <fputc>
   1400034bf:	48 83 bd f0 00 00 00 	cmpq   $0x0,0xf0(%rbp)
   1400034c6:	00 
   1400034c7:	0f 84 a2 00 00 00    	je     14000356f <type__print+0x291>
   1400034cd:	48 8b 85 d8 00 00 00 	mov    0xd8(%rbp),%rax
   1400034d4:	48 8d 15 9d ff 00 00 	lea    0xff9d(%rip),%rdx        # 140013478 <.rdata+0x428>
   1400034db:	48 89 54 24 20       	mov    %rdx,0x20(%rsp)
   1400034e0:	41 b9 16 00 00 00    	mov    $0x16,%r9d
   1400034e6:	41 b8 16 00 00 00    	mov    $0x16,%r8d
   1400034ec:	48 8d 15 5b ff 00 00 	lea    0xff5b(%rip),%rdx        # 14001344e <.rdata+0x3fe>
   1400034f3:	48 89 c1             	mov    %rax,%rcx
   1400034f6:	e8 95 e1 00 00       	call   140011690 <fprintf>
   1400034fb:	48 8b 8d f0 00 00 00 	mov    0xf0(%rbp),%rcx
   140003502:	48 8b 95 d8 00 00 00 	mov    0xd8(%rbp),%rdx
   140003509:	48 8b 85 d0 00 00 00 	mov    0xd0(%rbp),%rax
   140003510:	49 89 c9             	mov    %rcx,%r9
   140003513:	41 b8 05 00 00 00    	mov    $0x5,%r8d
   140003519:	48 89 c1             	mov    %rax,%rcx
   14000351c:	e8 d9 e1 ff ff       	call   1400016fa <_type__print_value>
   140003521:	48 8b 85 d8 00 00 00 	mov    0xd8(%rbp),%rax
   140003528:	48 89 c2             	mov    %rax,%rdx
   14000352b:	b9 0a 00 00 00       	mov    $0xa,%ecx
   140003530:	e8 1b e5 00 00       	call   140011a50 <fputc>
   140003535:	48 8b 85 d8 00 00 00 	mov    0xd8(%rbp),%rax
   14000353c:	48 8b 95 f0 00 00 00 	mov    0xf0(%rbp),%rdx
   140003543:	48 89 54 24 28       	mov    %rdx,0x28(%rsp)
   140003548:	48 8d 15 3b ff 00 00 	lea    0xff3b(%rip),%rdx        # 14001348a <.rdata+0x43a>
   14000354f:	48 89 54 24 20       	mov    %rdx,0x20(%rsp)
   140003554:	41 b9 16 00 00 00    	mov    $0x16,%r9d
   14000355a:	41 b8 16 00 00 00    	mov    $0x16,%r8d
   140003560:	48 8d 15 19 ff 00 00 	lea    0xff19(%rip),%rdx        # 140013480 <.rdata+0x430>
   140003567:	48 89 c1             	mov    %rax,%rcx
   14000356a:	e8 21 e1 00 00       	call   140011690 <fprintf>
   14000356f:	90                   	nop
   140003570:	48 81 c4 40 01 00 00 	add    $0x140,%rsp
   140003577:	5d                   	pop    %rbp
   140003578:	c3                   	ret

0000000140003579 <_type_struct__add_multiple>:
   140003579:	55                   	push   %rbp
   14000357a:	48 89 e5             	mov    %rsp,%rbp
   14000357d:	48 83 ec 40          	sub    $0x40,%rsp
   140003581:	48 89 4d 10          	mov    %rcx,0x10(%rbp)
   140003585:	48 89 55 18          	mov    %rdx,0x18(%rbp)
   140003589:	4c 89 45 20          	mov    %r8,0x20(%rbp)
   14000358d:	4c 89 4d 28          	mov    %r9,0x28(%rbp)
   140003591:	48 8d 45 18          	lea    0x18(%rbp),%rax
   140003595:	48 89 45 e8          	mov    %rax,-0x18(%rbp)
   140003599:	48 8b 45 e8          	mov    -0x18(%rbp),%rax
   14000359d:	48 8d 50 08          	lea    0x8(%rax),%rdx
   1400035a1:	48 89 55 e8          	mov    %rdx,-0x18(%rbp)
   1400035a5:	48 8b 00             	mov    (%rax),%rax
   1400035a8:	48 89 45 f8          	mov    %rax,-0x8(%rbp)
   1400035ac:	48 83 7d f8 00       	cmpq   $0x0,-0x8(%rbp)
   1400035b1:	75 23                	jne    1400035d6 <_type_struct__add_multiple+0x5d>
   1400035b3:	41 b8 a0 02 00 00    	mov    $0x2a0,%r8d
   1400035b9:	48 8d 05 90 fa 00 00 	lea    0xfa90(%rip),%rax        # 140013050 <.rdata>
   1400035c0:	48 89 c2             	mov    %rax,%rdx
   1400035c3:	48 8d 05 ca fe 00 00 	lea    0xfeca(%rip),%rax        # 140013494 <.rdata+0x444>
   1400035ca:	48 89 c1             	mov    %rax,%rcx
   1400035cd:	48 8b 05 6c 7d 01 00 	mov    0x17d6c(%rip),%rax        # 14001b340 <__imp__assert>
   1400035d4:	ff d0                	call   *%rax
   1400035d6:	48 8b 45 e8          	mov    -0x18(%rbp),%rax
   1400035da:	48 8d 50 08          	lea    0x8(%rax),%rdx
   1400035de:	48 89 55 e8          	mov    %rdx,-0x18(%rbp)
   1400035e2:	48 8b 00             	mov    (%rax),%rax
   1400035e5:	48 89 45 f0          	mov    %rax,-0x10(%rbp)
   1400035e9:	48 83 7d f0 00       	cmpq   $0x0,-0x10(%rbp)
   1400035ee:	75 23                	jne    140003613 <_type_struct__add_multiple+0x9a>
   1400035f0:	41 b8 a2 02 00 00    	mov    $0x2a2,%r8d
   1400035f6:	48 8d 05 53 fa 00 00 	lea    0xfa53(%rip),%rax        # 140013050 <.rdata>
   1400035fd:	48 89 c2             	mov    %rax,%rdx
   140003600:	48 8d 05 92 fe 00 00 	lea    0xfe92(%rip),%rax        # 140013499 <.rdata+0x449>
   140003607:	48 89 c1             	mov    %rax,%rcx
   14000360a:	48 8b 05 2f 7d 01 00 	mov    0x17d2f(%rip),%rax        # 14001b340 <__imp__assert>
   140003611:	ff d0                	call   *%rax
   140003613:	90                   	nop
   140003614:	48 8b 4d f0          	mov    -0x10(%rbp),%rcx
   140003618:	48 8b 55 f8          	mov    -0x8(%rbp),%rdx
   14000361c:	48 8b 45 10          	mov    0x10(%rbp),%rax
   140003620:	49 89 c8             	mov    %rcx,%r8
   140003623:	48 89 c1             	mov    %rax,%rcx
   140003626:	e8 a9 ee ff ff       	call   1400024d4 <type_struct__add>
   14000362b:	48 8b 45 e8          	mov    -0x18(%rbp),%rax
   14000362f:	48 8d 50 08          	lea    0x8(%rax),%rdx
   140003633:	48 89 55 e8          	mov    %rdx,-0x18(%rbp)
   140003637:	48 8b 00             	mov    (%rax),%rax
   14000363a:	48 89 45 f8          	mov    %rax,-0x8(%rbp)
   14000363e:	48 83 7d f8 00       	cmpq   $0x0,-0x8(%rbp)
   140003643:	74 3f                	je     140003684 <_type_struct__add_multiple+0x10b>
   140003645:	48 8b 45 e8          	mov    -0x18(%rbp),%rax
   140003649:	48 8d 50 08          	lea    0x8(%rax),%rdx
   14000364d:	48 89 55 e8          	mov    %rdx,-0x18(%rbp)
   140003651:	48 8b 00             	mov    (%rax),%rax
   140003654:	48 89 45 f0          	mov    %rax,-0x10(%rbp)
   140003658:	48 83 7d f0 00       	cmpq   $0x0,-0x10(%rbp)
   14000365d:	75 23                	jne    140003682 <_type_struct__add_multiple+0x109>
   14000365f:	41 b8 aa 02 00 00    	mov    $0x2aa,%r8d
   140003665:	48 8d 05 e4 f9 00 00 	lea    0xf9e4(%rip),%rax        # 140013050 <.rdata>
   14000366c:	48 89 c2             	mov    %rax,%rdx
   14000366f:	48 8d 05 23 fe 00 00 	lea    0xfe23(%rip),%rax        # 140013499 <.rdata+0x449>
   140003676:	48 89 c1             	mov    %rax,%rcx
   140003679:	48 8b 05 c0 7c 01 00 	mov    0x17cc0(%rip),%rax        # 14001b340 <__imp__assert>
   140003680:	ff d0                	call   *%rax
   140003682:	eb 90                	jmp    140003614 <_type_struct__add_multiple+0x9b>
   140003684:	90                   	nop
   140003685:	90                   	nop
   140003686:	48 83 c4 40          	add    $0x40,%rsp
   14000368a:	5d                   	pop    %rbp
   14000368b:	c3                   	ret

000000014000368c <_type_union__add_multiple>:
   14000368c:	55                   	push   %rbp
   14000368d:	48 89 e5             	mov    %rsp,%rbp
   140003690:	48 83 ec 40          	sub    $0x40,%rsp
   140003694:	48 89 4d 10          	mov    %rcx,0x10(%rbp)
   140003698:	48 89 55 18          	mov    %rdx,0x18(%rbp)
   14000369c:	4c 89 45 20          	mov    %r8,0x20(%rbp)
   1400036a0:	4c 89 4d 28          	mov    %r9,0x28(%rbp)
   1400036a4:	48 8d 45 18          	lea    0x18(%rbp),%rax
   1400036a8:	48 89 45 e8          	mov    %rax,-0x18(%rbp)
   1400036ac:	48 8b 45 e8          	mov    -0x18(%rbp),%rax
   1400036b0:	48 8d 50 08          	lea    0x8(%rax),%rdx
   1400036b4:	48 89 55 e8          	mov    %rdx,-0x18(%rbp)
   1400036b8:	48 8b 00             	mov    (%rax),%rax
   1400036bb:	48 89 45 f8          	mov    %rax,-0x8(%rbp)
   1400036bf:	48 83 7d f8 00       	cmpq   $0x0,-0x8(%rbp)
   1400036c4:	75 23                	jne    1400036e9 <_type_union__add_multiple+0x5d>
   1400036c6:	41 b8 b5 02 00 00    	mov    $0x2b5,%r8d
   1400036cc:	48 8d 05 7d f9 00 00 	lea    0xf97d(%rip),%rax        # 140013050 <.rdata>
   1400036d3:	48 89 c2             	mov    %rax,%rdx
   1400036d6:	48 8d 05 b7 fd 00 00 	lea    0xfdb7(%rip),%rax        # 140013494 <.rdata+0x444>
   1400036dd:	48 89 c1             	mov    %rax,%rcx
   1400036e0:	48 8b 05 59 7c 01 00 	mov    0x17c59(%rip),%rax        # 14001b340 <__imp__assert>
   1400036e7:	ff d0                	call   *%rax
   1400036e9:	48 8b 45 e8          	mov    -0x18(%rbp),%rax
   1400036ed:	48 8d 50 08          	lea    0x8(%rax),%rdx
   1400036f1:	48 89 55 e8          	mov    %rdx,-0x18(%rbp)
   1400036f5:	48 8b 00             	mov    (%rax),%rax
   1400036f8:	48 89 45 f0          	mov    %rax,-0x10(%rbp)
   1400036fc:	48 83 7d f0 00       	cmpq   $0x0,-0x10(%rbp)
   140003701:	75 23                	jne    140003726 <_type_union__add_multiple+0x9a>
   140003703:	41 b8 b7 02 00 00    	mov    $0x2b7,%r8d
   140003709:	48 8d 05 40 f9 00 00 	lea    0xf940(%rip),%rax        # 140013050 <.rdata>
   140003710:	48 89 c2             	mov    %rax,%rdx
   140003713:	48 8d 05 7f fd 00 00 	lea    0xfd7f(%rip),%rax        # 140013499 <.rdata+0x449>
   14000371a:	48 89 c1             	mov    %rax,%rcx
   14000371d:	48 8b 05 1c 7c 01 00 	mov    0x17c1c(%rip),%rax        # 14001b340 <__imp__assert>
   140003724:	ff d0                	call   *%rax
   140003726:	90                   	nop
   140003727:	48 8b 4d f0          	mov    -0x10(%rbp),%rcx
   14000372b:	48 8b 55 f8          	mov    -0x8(%rbp),%rdx
   14000372f:	48 8b 45 10          	mov    0x10(%rbp),%rax
   140003733:	49 89 c8             	mov    %rcx,%r8
   140003736:	48 89 c1             	mov    %rax,%rcx
   140003739:	e8 6c ef ff ff       	call   1400026aa <type_union__add>
   14000373e:	48 8b 45 e8          	mov    -0x18(%rbp),%rax
   140003742:	48 8d 50 08          	lea    0x8(%rax),%rdx
   140003746:	48 89 55 e8          	mov    %rdx,-0x18(%rbp)
   14000374a:	48 8b 00             	mov    (%rax),%rax
   14000374d:	48 89 45 f8          	mov    %rax,-0x8(%rbp)
   140003751:	48 83 7d f8 00       	cmpq   $0x0,-0x8(%rbp)
   140003756:	74 3f                	je     140003797 <_type_union__add_multiple+0x10b>
   140003758:	48 8b 45 e8          	mov    -0x18(%rbp),%rax
   14000375c:	48 8d 50 08          	lea    0x8(%rax),%rdx
   140003760:	48 89 55 e8          	mov    %rdx,-0x18(%rbp)
   140003764:	48 8b 00             	mov    (%rax),%rax
   140003767:	48 89 45 f0          	mov    %rax,-0x10(%rbp)
   14000376b:	48 83 7d f0 00       	cmpq   $0x0,-0x10(%rbp)
   140003770:	75 23                	jne    140003795 <_type_union__add_multiple+0x109>
   140003772:	41 b8 bf 02 00 00    	mov    $0x2bf,%r8d
   140003778:	48 8d 05 d1 f8 00 00 	lea    0xf8d1(%rip),%rax        # 140013050 <.rdata>
   14000377f:	48 89 c2             	mov    %rax,%rdx
   140003782:	48 8d 05 10 fd 00 00 	lea    0xfd10(%rip),%rax        # 140013499 <.rdata+0x449>
   140003789:	48 89 c1             	mov    %rax,%rcx
   14000378c:	48 8b 05 ad 7b 01 00 	mov    0x17bad(%rip),%rax        # 14001b340 <__imp__assert>
   140003793:	ff d0                	call   *%rax
   140003795:	eb 90                	jmp    140003727 <_type_union__add_multiple+0x9b>
   140003797:	90                   	nop
   140003798:	90                   	nop
   140003799:	48 83 c4 40          	add    $0x40,%rsp
   14000379d:	5d                   	pop    %rbp
   14000379e:	c3                   	ret

000000014000379f <_type__print_value_s8>:
   14000379f:	55                   	push   %rbp
   1400037a0:	48 89 e5             	mov    %rsp,%rbp
   1400037a3:	48 83 ec 20          	sub    $0x20,%rsp
   1400037a7:	48 89 4d 10          	mov    %rcx,0x10(%rbp)
   1400037ab:	48 89 55 18          	mov    %rdx,0x18(%rbp)
   1400037af:	48 8b 45 18          	mov    0x18(%rbp),%rax
   1400037b3:	0f b6 00             	movzbl (%rax),%eax
   1400037b6:	0f be d0             	movsbl %al,%edx
   1400037b9:	48 8b 45 10          	mov    0x10(%rbp),%rax
   1400037bd:	41 89 d0             	mov    %edx,%r8d
   1400037c0:	48 8d 15 d7 fc 00 00 	lea    0xfcd7(%rip),%rdx        # 14001349e <.rdata+0x44e>
   1400037c7:	48 89 c1             	mov    %rax,%rcx
   1400037ca:	e8 c1 de 00 00       	call   140011690 <fprintf>
   1400037cf:	90                   	nop
   1400037d0:	48 83 c4 20          	add    $0x20,%rsp
   1400037d4:	5d                   	pop    %rbp
   1400037d5:	c3                   	ret

00000001400037d6 <_type__print_value_s16>:
   1400037d6:	55                   	push   %rbp
   1400037d7:	48 89 e5             	mov    %rsp,%rbp
   1400037da:	48 83 ec 20          	sub    $0x20,%rsp
   1400037de:	48 89 4d 10          	mov    %rcx,0x10(%rbp)
   1400037e2:	48 89 55 18          	mov    %rdx,0x18(%rbp)
   1400037e6:	48 8b 45 18          	mov    0x18(%rbp),%rax
   1400037ea:	0f b7 00             	movzwl (%rax),%eax
   1400037ed:	0f bf d0             	movswl %ax,%edx
   1400037f0:	48 8b 45 10          	mov    0x10(%rbp),%rax
   1400037f4:	41 89 d0             	mov    %edx,%r8d
   1400037f7:	48 8d 15 a0 fc 00 00 	lea    0xfca0(%rip),%rdx        # 14001349e <.rdata+0x44e>
   1400037fe:	48 89 c1             	mov    %rax,%rcx
   140003801:	e8 8a de 00 00       	call   140011690 <fprintf>
   140003806:	90                   	nop
   140003807:	48 83 c4 20          	add    $0x20,%rsp
   14000380b:	5d                   	pop    %rbp
   14000380c:	c3                   	ret

000000014000380d <_type__print_value_s32>:
   14000380d:	55                   	push   %rbp
   14000380e:	48 89 e5             	mov    %rsp,%rbp
   140003811:	48 83 ec 20          	sub    $0x20,%rsp
   140003815:	48 89 4d 10          	mov    %rcx,0x10(%rbp)
   140003819:	48 89 55 18          	mov    %rdx,0x18(%rbp)
   14000381d:	48 8b 45 18          	mov    0x18(%rbp),%rax
   140003821:	8b 10                	mov    (%rax),%edx
   140003823:	48 8b 45 10          	mov    0x10(%rbp),%rax
   140003827:	41 89 d0             	mov    %edx,%r8d
   14000382a:	48 8d 15 6d fc 00 00 	lea    0xfc6d(%rip),%rdx        # 14001349e <.rdata+0x44e>
   140003831:	48 89 c1             	mov    %rax,%rcx
   140003834:	e8 57 de 00 00       	call   140011690 <fprintf>
   140003839:	90                   	nop
   14000383a:	48 83 c4 20          	add    $0x20,%rsp
   14000383e:	5d                   	pop    %rbp
   14000383f:	c3                   	ret

0000000140003840 <_type__print_value_s64>:
   140003840:	55                   	push   %rbp
   140003841:	48 89 e5             	mov    %rsp,%rbp
   140003844:	48 83 ec 20          	sub    $0x20,%rsp
   140003848:	48 89 4d 10          	mov    %rcx,0x10(%rbp)
   14000384c:	48 89 55 18          	mov    %rdx,0x18(%rbp)
   140003850:	48 8b 45 18          	mov    0x18(%rbp),%rax
   140003854:	48 8b 10             	mov    (%rax),%rdx
   140003857:	48 8b 45 10          	mov    0x10(%rbp),%rax
   14000385b:	49 89 d0             	mov    %rdx,%r8
   14000385e:	48 8d 15 3c fc 00 00 	lea    0xfc3c(%rip),%rdx        # 1400134a1 <.rdata+0x451>
   140003865:	48 89 c1             	mov    %rax,%rcx
   140003868:	e8 23 de 00 00       	call   140011690 <fprintf>
   14000386d:	90                   	nop
   14000386e:	48 83 c4 20          	add    $0x20,%rsp
   140003872:	5d                   	pop    %rbp
   140003873:	c3                   	ret

0000000140003874 <_type__print_value_u8>:
   140003874:	55                   	push   %rbp
   140003875:	48 89 e5             	mov    %rsp,%rbp
   140003878:	48 83 ec 20          	sub    $0x20,%rsp
   14000387c:	48 89 4d 10          	mov    %rcx,0x10(%rbp)
   140003880:	48 89 55 18          	mov    %rdx,0x18(%rbp)
   140003884:	48 8b 45 18          	mov    0x18(%rbp),%rax
   140003888:	0f b6 00             	movzbl (%rax),%eax
   14000388b:	0f b6 d0             	movzbl %al,%edx
   14000388e:	48 8b 45 10          	mov    0x10(%rbp),%rax
   140003892:	41 89 d0             	mov    %edx,%r8d
   140003895:	48 8d 15 0a fc 00 00 	lea    0xfc0a(%rip),%rdx        # 1400134a6 <.rdata+0x456>
   14000389c:	48 89 c1             	mov    %rax,%rcx
   14000389f:	e8 ec dd 00 00       	call   140011690 <fprintf>
   1400038a4:	90                   	nop
   1400038a5:	48 83 c4 20          	add    $0x20,%rsp
   1400038a9:	5d                   	pop    %rbp
   1400038aa:	c3                   	ret

00000001400038ab <_type__print_value_u16>:
   1400038ab:	55                   	push   %rbp
   1400038ac:	48 89 e5             	mov    %rsp,%rbp
   1400038af:	48 83 ec 20          	sub    $0x20,%rsp
   1400038b3:	48 89 4d 10          	mov    %rcx,0x10(%rbp)
   1400038b7:	48 89 55 18          	mov    %rdx,0x18(%rbp)
   1400038bb:	48 8b 45 18          	mov    0x18(%rbp),%rax
   1400038bf:	0f b7 00             	movzwl (%rax),%eax
   1400038c2:	0f b7 d0             	movzwl %ax,%edx
   1400038c5:	48 8b 45 10          	mov    0x10(%rbp),%rax
   1400038c9:	41 89 d0             	mov    %edx,%r8d
   1400038cc:	48 8d 15 d3 fb 00 00 	lea    0xfbd3(%rip),%rdx        # 1400134a6 <.rdata+0x456>
   1400038d3:	48 89 c1             	mov    %rax,%rcx
   1400038d6:	e8 b5 dd 00 00       	call   140011690 <fprintf>
   1400038db:	90                   	nop
   1400038dc:	48 83 c4 20          	add    $0x20,%rsp
   1400038e0:	5d                   	pop    %rbp
   1400038e1:	c3                   	ret

00000001400038e2 <_type__print_value_u32>:
   1400038e2:	55                   	push   %rbp
   1400038e3:	48 89 e5             	mov    %rsp,%rbp
   1400038e6:	48 83 ec 20          	sub    $0x20,%rsp
   1400038ea:	48 89 4d 10          	mov    %rcx,0x10(%rbp)
   1400038ee:	48 89 55 18          	mov    %rdx,0x18(%rbp)
   1400038f2:	48 8b 45 18          	mov    0x18(%rbp),%rax
   1400038f6:	8b 10                	mov    (%rax),%edx
   1400038f8:	48 8b 45 10          	mov    0x10(%rbp),%rax
   1400038fc:	41 89 d0             	mov    %edx,%r8d
   1400038ff:	48 8d 15 a0 fb 00 00 	lea    0xfba0(%rip),%rdx        # 1400134a6 <.rdata+0x456>
   140003906:	48 89 c1             	mov    %rax,%rcx
   140003909:	e8 82 dd 00 00       	call   140011690 <fprintf>
   14000390e:	90                   	nop
   14000390f:	48 83 c4 20          	add    $0x20,%rsp
   140003913:	5d                   	pop    %rbp
   140003914:	c3                   	ret

0000000140003915 <_type__print_value_u64>:
   140003915:	55                   	push   %rbp
   140003916:	48 89 e5             	mov    %rsp,%rbp
   140003919:	48 83 ec 20          	sub    $0x20,%rsp
   14000391d:	48 89 4d 10          	mov    %rcx,0x10(%rbp)
   140003921:	48 89 55 18          	mov    %rdx,0x18(%rbp)
   140003925:	48 8b 45 18          	mov    0x18(%rbp),%rax
   140003929:	48 8b 10             	mov    (%rax),%rdx
   14000392c:	48 8b 45 10          	mov    0x10(%rbp),%rax
   140003930:	49 89 d0             	mov    %rdx,%r8
   140003933:	48 8d 15 f6 fa 00 00 	lea    0xfaf6(%rip),%rdx        # 140013430 <.rdata+0x3e0>
   14000393a:	48 89 c1             	mov    %rax,%rcx
   14000393d:	e8 4e dd 00 00       	call   140011690 <fprintf>
   140003942:	90                   	nop
   140003943:	48 83 c4 20          	add    $0x20,%rsp
   140003947:	5d                   	pop    %rbp
   140003948:	c3                   	ret

0000000140003949 <_type__print_value_r32>:
   140003949:	55                   	push   %rbp
   14000394a:	48 89 e5             	mov    %rsp,%rbp
   14000394d:	48 83 ec 20          	sub    $0x20,%rsp
   140003951:	48 89 4d 10          	mov    %rcx,0x10(%rbp)
   140003955:	48 89 55 18          	mov    %rdx,0x18(%rbp)
   140003959:	48 8b 45 18          	mov    0x18(%rbp),%rax
   14000395d:	f3 0f 10 00          	movss  (%rax),%xmm0
   140003961:	f3 0f 5a c0          	cvtss2sd %xmm0,%xmm0
   140003965:	66 48 0f 7e c0       	movq   %xmm0,%rax
   14000396a:	48 89 c2             	mov    %rax,%rdx
   14000396d:	66 48 0f 6e c2       	movq   %rdx,%xmm0
   140003972:	48 89 c2             	mov    %rax,%rdx
   140003975:	48 8b 45 10          	mov    0x10(%rbp),%rax
   140003979:	66 0f 28 d0          	movapd %xmm0,%xmm2
   14000397d:	49 89 d0             	mov    %rdx,%r8
   140003980:	48 8d 15 22 fb 00 00 	lea    0xfb22(%rip),%rdx        # 1400134a9 <.rdata+0x459>
   140003987:	48 89 c1             	mov    %rax,%rcx
   14000398a:	e8 01 dd 00 00       	call   140011690 <fprintf>
   14000398f:	90                   	nop
   140003990:	48 83 c4 20          	add    $0x20,%rsp
   140003994:	5d                   	pop    %rbp
   140003995:	c3                   	ret

0000000140003996 <_type__print_value_r64>:
   140003996:	55                   	push   %rbp
   140003997:	48 89 e5             	mov    %rsp,%rbp
   14000399a:	48 83 ec 20          	sub    $0x20,%rsp
   14000399e:	48 89 4d 10          	mov    %rcx,0x10(%rbp)
   1400039a2:	48 89 55 18          	mov    %rdx,0x18(%rbp)
   1400039a6:	48 8b 45 18          	mov    0x18(%rbp),%rax
   1400039aa:	f2 0f 10 00          	movsd  (%rax),%xmm0
   1400039ae:	66 48 0f 7e c0       	movq   %xmm0,%rax
   1400039b3:	48 89 c2             	mov    %rax,%rdx
   1400039b6:	66 48 0f 6e c2       	movq   %rdx,%xmm0
   1400039bb:	48 89 c2             	mov    %rax,%rdx
   1400039be:	48 8b 45 10          	mov    0x10(%rbp),%rax
   1400039c2:	66 0f 28 d0          	movapd %xmm0,%xmm2
   1400039c6:	49 89 d0             	mov    %rdx,%r8
   1400039c9:	48 8d 15 dc fa 00 00 	lea    0xfadc(%rip),%rdx        # 1400134ac <.rdata+0x45c>
   1400039d0:	48 89 c1             	mov    %rax,%rcx
   1400039d3:	e8 b8 dc 00 00       	call   140011690 <fprintf>
   1400039d8:	90                   	nop
   1400039d9:	48 83 c4 20          	add    $0x20,%rsp
   1400039dd:	5d                   	pop    %rbp
   1400039de:	c3                   	ret

00000001400039df <main2>:
   1400039df:	55                   	push   %rbp
   1400039e0:	48 81 ec 40 04 00 00 	sub    $0x440,%rsp
   1400039e7:	48 8d ac 24 80 00 00 	lea    0x80(%rsp),%rbp
   1400039ee:	00 
   1400039ef:	4c 8d 0d a9 fd ff ff 	lea    -0x257(%rip),%r9        # 14000379f <_type__print_value_s8>
   1400039f6:	41 b8 01 00 00 00    	mov    $0x1,%r8d
   1400039fc:	48 8d 05 ad fa 00 00 	lea    0xfaad(%rip),%rax        # 1400134b0 <.rdata+0x460>
   140003a03:	48 89 c2             	mov    %rax,%rdx
   140003a06:	48 8d 05 a3 fa 00 00 	lea    0xfaa3(%rip),%rax        # 1400134b0 <.rdata+0x460>
   140003a0d:	48 89 c1             	mov    %rax,%rcx
   140003a10:	e8 f2 e4 ff ff       	call   140001f07 <type_atom__create>
   140003a15:	48 89 85 b8 03 00 00 	mov    %rax,0x3b8(%rbp)
   140003a1c:	4c 8d 0d b3 fd ff ff 	lea    -0x24d(%rip),%r9        # 1400037d6 <_type__print_value_s16>
   140003a23:	41 b8 02 00 00 00    	mov    $0x2,%r8d
   140003a29:	48 8d 05 83 fa 00 00 	lea    0xfa83(%rip),%rax        # 1400134b3 <.rdata+0x463>
   140003a30:	48 89 c2             	mov    %rax,%rdx
   140003a33:	48 8d 05 79 fa 00 00 	lea    0xfa79(%rip),%rax        # 1400134b3 <.rdata+0x463>
   140003a3a:	48 89 c1             	mov    %rax,%rcx
   140003a3d:	e8 c5 e4 ff ff       	call   140001f07 <type_atom__create>
   140003a42:	48 89 85 b0 03 00 00 	mov    %rax,0x3b0(%rbp)
   140003a49:	4c 8d 0d bd fd ff ff 	lea    -0x243(%rip),%r9        # 14000380d <_type__print_value_s32>
   140003a50:	41 b8 04 00 00 00    	mov    $0x4,%r8d
   140003a56:	48 8d 05 5a fa 00 00 	lea    0xfa5a(%rip),%rax        # 1400134b7 <.rdata+0x467>
   140003a5d:	48 89 c2             	mov    %rax,%rdx
   140003a60:	48 8d 05 50 fa 00 00 	lea    0xfa50(%rip),%rax        # 1400134b7 <.rdata+0x467>
   140003a67:	48 89 c1             	mov    %rax,%rcx
   140003a6a:	e8 98 e4 ff ff       	call   140001f07 <type_atom__create>
   140003a6f:	48 89 85 a8 03 00 00 	mov    %rax,0x3a8(%rbp)
   140003a76:	4c 8d 0d c3 fd ff ff 	lea    -0x23d(%rip),%r9        # 140003840 <_type__print_value_s64>
   140003a7d:	41 b8 08 00 00 00    	mov    $0x8,%r8d
   140003a83:	48 8d 05 31 fa 00 00 	lea    0xfa31(%rip),%rax        # 1400134bb <.rdata+0x46b>
   140003a8a:	48 89 c2             	mov    %rax,%rdx
   140003a8d:	48 8d 05 27 fa 00 00 	lea    0xfa27(%rip),%rax        # 1400134bb <.rdata+0x46b>
   140003a94:	48 89 c1             	mov    %rax,%rcx
   140003a97:	e8 6b e4 ff ff       	call   140001f07 <type_atom__create>
   140003a9c:	48 89 85 a0 03 00 00 	mov    %rax,0x3a0(%rbp)
   140003aa3:	4c 8d 0d ca fd ff ff 	lea    -0x236(%rip),%r9        # 140003874 <_type__print_value_u8>
   140003aaa:	41 b8 01 00 00 00    	mov    $0x1,%r8d
   140003ab0:	48 8d 05 08 fa 00 00 	lea    0xfa08(%rip),%rax        # 1400134bf <.rdata+0x46f>
   140003ab7:	48 89 c2             	mov    %rax,%rdx
   140003aba:	48 8d 05 fe f9 00 00 	lea    0xf9fe(%rip),%rax        # 1400134bf <.rdata+0x46f>
   140003ac1:	48 89 c1             	mov    %rax,%rcx
   140003ac4:	e8 3e e4 ff ff       	call   140001f07 <type_atom__create>
   140003ac9:	48 89 85 98 03 00 00 	mov    %rax,0x398(%rbp)
   140003ad0:	4c 8d 0d d4 fd ff ff 	lea    -0x22c(%rip),%r9        # 1400038ab <_type__print_value_u16>
   140003ad7:	41 b8 02 00 00 00    	mov    $0x2,%r8d
   140003add:	48 8d 05 de f9 00 00 	lea    0xf9de(%rip),%rax        # 1400134c2 <.rdata+0x472>
   140003ae4:	48 89 c2             	mov    %rax,%rdx
   140003ae7:	48 8d 05 d4 f9 00 00 	lea    0xf9d4(%rip),%rax        # 1400134c2 <.rdata+0x472>
   140003aee:	48 89 c1             	mov    %rax,%rcx
   140003af1:	e8 11 e4 ff ff       	call   140001f07 <type_atom__create>
   140003af6:	48 89 85 90 03 00 00 	mov    %rax,0x390(%rbp)
   140003afd:	4c 8d 0d de fd ff ff 	lea    -0x222(%rip),%r9        # 1400038e2 <_type__print_value_u32>
   140003b04:	41 b8 04 00 00 00    	mov    $0x4,%r8d
   140003b0a:	48 8d 05 b5 f9 00 00 	lea    0xf9b5(%rip),%rax        # 1400134c6 <.rdata+0x476>
   140003b11:	48 89 c2             	mov    %rax,%rdx
   140003b14:	48 8d 05 ab f9 00 00 	lea    0xf9ab(%rip),%rax        # 1400134c6 <.rdata+0x476>
   140003b1b:	48 89 c1             	mov    %rax,%rcx
   140003b1e:	e8 e4 e3 ff ff       	call   140001f07 <type_atom__create>
   140003b23:	48 89 85 88 03 00 00 	mov    %rax,0x388(%rbp)
   140003b2a:	4c 8d 0d e4 fd ff ff 	lea    -0x21c(%rip),%r9        # 140003915 <_type__print_value_u64>
   140003b31:	41 b8 08 00 00 00    	mov    $0x8,%r8d
   140003b37:	48 8d 05 8c f9 00 00 	lea    0xf98c(%rip),%rax        # 1400134ca <.rdata+0x47a>
   140003b3e:	48 89 c2             	mov    %rax,%rdx
   140003b41:	48 8d 05 82 f9 00 00 	lea    0xf982(%rip),%rax        # 1400134ca <.rdata+0x47a>
   140003b48:	48 89 c1             	mov    %rax,%rcx
   140003b4b:	e8 b7 e3 ff ff       	call   140001f07 <type_atom__create>
   140003b50:	48 89 85 80 03 00 00 	mov    %rax,0x380(%rbp)
   140003b57:	4c 8d 0d eb fd ff ff 	lea    -0x215(%rip),%r9        # 140003949 <_type__print_value_r32>
   140003b5e:	41 b8 04 00 00 00    	mov    $0x4,%r8d
   140003b64:	48 8d 05 63 f9 00 00 	lea    0xf963(%rip),%rax        # 1400134ce <.rdata+0x47e>
   140003b6b:	48 89 c2             	mov    %rax,%rdx
   140003b6e:	48 8d 05 59 f9 00 00 	lea    0xf959(%rip),%rax        # 1400134ce <.rdata+0x47e>
   140003b75:	48 89 c1             	mov    %rax,%rcx
   140003b78:	e8 8a e3 ff ff       	call   140001f07 <type_atom__create>
   140003b7d:	48 89 85 78 03 00 00 	mov    %rax,0x378(%rbp)
   140003b84:	4c 8d 0d 0b fe ff ff 	lea    -0x1f5(%rip),%r9        # 140003996 <_type__print_value_r64>
   140003b8b:	41 b8 08 00 00 00    	mov    $0x8,%r8d
   140003b91:	48 8d 05 3a f9 00 00 	lea    0xf93a(%rip),%rax        # 1400134d2 <.rdata+0x482>
   140003b98:	48 89 c2             	mov    %rax,%rdx
   140003b9b:	48 8d 05 30 f9 00 00 	lea    0xf930(%rip),%rax        # 1400134d2 <.rdata+0x482>
   140003ba2:	48 89 c1             	mov    %rax,%rcx
   140003ba5:	e8 5d e3 ff ff       	call   140001f07 <type_atom__create>
   140003baa:	48 89 85 70 03 00 00 	mov    %rax,0x370(%rbp)
   140003bb1:	48 8d 05 1e f9 00 00 	lea    0xf91e(%rip),%rax        # 1400134d6 <.rdata+0x486>
   140003bb8:	48 89 c1             	mov    %rax,%rcx
   140003bbb:	e8 bb e8 ff ff       	call   14000247b <type_struct__create>
   140003bc0:	48 89 85 68 03 00 00 	mov    %rax,0x368(%rbp)
   140003bc7:	48 8b 95 b8 03 00 00 	mov    0x3b8(%rbp),%rdx
   140003bce:	48 8b 85 68 03 00 00 	mov    0x368(%rbp),%rax
   140003bd5:	4c 8d 05 fc f8 00 00 	lea    0xf8fc(%rip),%r8        # 1400134d8 <.rdata+0x488>
   140003bdc:	48 89 c1             	mov    %rax,%rcx
   140003bdf:	e8 f0 e8 ff ff       	call   1400024d4 <type_struct__add>
   140003be4:	48 8d 05 ef f8 00 00 	lea    0xf8ef(%rip),%rax        # 1400134da <.rdata+0x48a>
   140003beb:	48 89 c1             	mov    %rax,%rcx
   140003bee:	e8 88 e8 ff ff       	call   14000247b <type_struct__create>
   140003bf3:	48 89 85 60 03 00 00 	mov    %rax,0x360(%rbp)
   140003bfa:	48 8b 95 b8 03 00 00 	mov    0x3b8(%rbp),%rdx
   140003c01:	48 8b 85 60 03 00 00 	mov    0x360(%rbp),%rax
   140003c08:	4c 8d 05 c9 f8 00 00 	lea    0xf8c9(%rip),%r8        # 1400134d8 <.rdata+0x488>
   140003c0f:	48 89 c1             	mov    %rax,%rcx
   140003c12:	e8 bd e8 ff ff       	call   1400024d4 <type_struct__add>
   140003c17:	48 8b 95 a8 03 00 00 	mov    0x3a8(%rbp),%rdx
   140003c1e:	48 8b 85 60 03 00 00 	mov    0x360(%rbp),%rax
   140003c25:	4c 8d 05 b0 f8 00 00 	lea    0xf8b0(%rip),%r8        # 1400134dc <.rdata+0x48c>
   140003c2c:	48 89 c1             	mov    %rax,%rcx
   140003c2f:	e8 a0 e8 ff ff       	call   1400024d4 <type_struct__add>
   140003c34:	48 8d 05 a4 f8 00 00 	lea    0xf8a4(%rip),%rax        # 1400134df <.rdata+0x48f>
   140003c3b:	48 89 c1             	mov    %rax,%rcx
   140003c3e:	e8 38 e8 ff ff       	call   14000247b <type_struct__create>
   140003c43:	48 89 85 58 03 00 00 	mov    %rax,0x358(%rbp)
   140003c4a:	4c 8b 85 b8 03 00 00 	mov    0x3b8(%rbp),%r8
   140003c51:	48 8b 95 a8 03 00 00 	mov    0x3a8(%rbp),%rdx
   140003c58:	48 8b 85 58 03 00 00 	mov    0x358(%rbp),%rax
   140003c5f:	48 c7 44 24 28 00 00 	movq   $0x0,0x28(%rsp)
   140003c66:	00 00 
   140003c68:	48 8d 0d 6d f8 00 00 	lea    0xf86d(%rip),%rcx        # 1400134dc <.rdata+0x48c>
   140003c6f:	48 89 4c 24 20       	mov    %rcx,0x20(%rsp)
   140003c74:	4d 89 c1             	mov    %r8,%r9
   140003c77:	4c 8d 05 5a f8 00 00 	lea    0xf85a(%rip),%r8        # 1400134d8 <.rdata+0x488>
   140003c7e:	48 89 c1             	mov    %rax,%rcx
   140003c81:	e8 f3 f8 ff ff       	call   140003579 <_type_struct__add_multiple>
   140003c86:	48 8b 85 b8 03 00 00 	mov    0x3b8(%rbp),%rax
   140003c8d:	41 b8 03 00 00 00    	mov    $0x3,%r8d
   140003c93:	48 89 c2             	mov    %rax,%rdx
   140003c96:	48 8d 05 44 f8 00 00 	lea    0xf844(%rip),%rax        # 1400134e1 <.rdata+0x491>
   140003c9d:	48 89 c1             	mov    %rax,%rcx
   140003ca0:	e8 82 eb ff ff       	call   140002827 <type_array__create>
   140003ca5:	48 89 85 50 03 00 00 	mov    %rax,0x350(%rbp)
   140003cac:	48 8d 05 30 f8 00 00 	lea    0xf830(%rip),%rax        # 1400134e3 <.rdata+0x493>
   140003cb3:	48 89 c1             	mov    %rax,%rcx
   140003cb6:	e8 96 e9 ff ff       	call   140002651 <type_union__create>
   140003cbb:	48 89 85 48 03 00 00 	mov    %rax,0x348(%rbp)
   140003cc2:	4c 8b 85 b8 03 00 00 	mov    0x3b8(%rbp),%r8
   140003cc9:	48 8b 95 a8 03 00 00 	mov    0x3a8(%rbp),%rdx
   140003cd0:	48 8b 85 48 03 00 00 	mov    0x348(%rbp),%rax
   140003cd7:	48 c7 44 24 38 00 00 	movq   $0x0,0x38(%rsp)
   140003cde:	00 00 
   140003ce0:	48 8d 0d fe f7 00 00 	lea    0xf7fe(%rip),%rcx        # 1400134e5 <.rdata+0x495>
   140003ce7:	48 89 4c 24 30       	mov    %rcx,0x30(%rsp)
   140003cec:	48 8b 8d a0 03 00 00 	mov    0x3a0(%rbp),%rcx
   140003cf3:	48 89 4c 24 28       	mov    %rcx,0x28(%rsp)
   140003cf8:	48 8d 0d dd f7 00 00 	lea    0xf7dd(%rip),%rcx        # 1400134dc <.rdata+0x48c>
   140003cff:	48 89 4c 24 20       	mov    %rcx,0x20(%rsp)
   140003d04:	4d 89 c1             	mov    %r8,%r9
   140003d07:	4c 8d 05 ca f7 00 00 	lea    0xf7ca(%rip),%r8        # 1400134d8 <.rdata+0x488>
   140003d0e:	48 89 c1             	mov    %rax,%rcx
   140003d11:	e8 76 f9 ff ff       	call   14000368c <_type_union__add_multiple>
   140003d16:	48 8b 85 48 03 00 00 	mov    0x348(%rbp),%rax
   140003d1d:	48 89 c2             	mov    %rax,%rdx
   140003d20:	48 8d 05 c2 f7 00 00 	lea    0xf7c2(%rip),%rax        # 1400134e9 <.rdata+0x499>
   140003d27:	48 89 c1             	mov    %rax,%rcx
   140003d2a:	e8 c1 eb ff ff       	call   1400028f0 <type_pointer__create>
   140003d2f:	48 89 85 40 03 00 00 	mov    %rax,0x340(%rbp)
   140003d36:	48 8d 05 ae f7 00 00 	lea    0xf7ae(%rip),%rax        # 1400134eb <.rdata+0x49b>
   140003d3d:	48 89 c1             	mov    %rax,%rcx
   140003d40:	e8 36 e7 ff ff       	call   14000247b <type_struct__create>
   140003d45:	48 89 85 38 03 00 00 	mov    %rax,0x338(%rbp)
   140003d4c:	4c 8b 85 78 03 00 00 	mov    0x378(%rbp),%r8
   140003d53:	48 8b 95 40 03 00 00 	mov    0x340(%rbp),%rdx
   140003d5a:	48 8b 85 38 03 00 00 	mov    0x338(%rbp),%rax
   140003d61:	48 c7 44 24 48 00 00 	movq   $0x0,0x48(%rsp)
   140003d68:	00 00 
   140003d6a:	48 8d 0d 7c f7 00 00 	lea    0xf77c(%rip),%rcx        # 1400134ed <.rdata+0x49d>
   140003d71:	48 89 4c 24 40       	mov    %rcx,0x40(%rsp)
   140003d76:	48 8b 8d 58 03 00 00 	mov    0x358(%rbp),%rcx
   140003d7d:	48 89 4c 24 38       	mov    %rcx,0x38(%rsp)
   140003d82:	48 8d 0d 5c f7 00 00 	lea    0xf75c(%rip),%rcx        # 1400134e5 <.rdata+0x495>
   140003d89:	48 89 4c 24 30       	mov    %rcx,0x30(%rsp)
   140003d8e:	48 8b 8d 48 03 00 00 	mov    0x348(%rbp),%rcx
   140003d95:	48 89 4c 24 28       	mov    %rcx,0x28(%rsp)
   140003d9a:	48 8d 0d 3b f7 00 00 	lea    0xf73b(%rip),%rcx        # 1400134dc <.rdata+0x48c>
   140003da1:	48 89 4c 24 20       	mov    %rcx,0x20(%rsp)
   140003da6:	4d 89 c1             	mov    %r8,%r9
   140003da9:	4c 8d 05 28 f7 00 00 	lea    0xf728(%rip),%r8        # 1400134d8 <.rdata+0x488>
   140003db0:	48 89 c1             	mov    %rax,%rcx
   140003db3:	e8 c1 f7 ff ff       	call   140003579 <_type_struct__add_multiple>
   140003db8:	48 8b 85 48 03 00 00 	mov    0x348(%rbp),%rax
   140003dbf:	41 b8 25 00 00 00    	mov    $0x25,%r8d
   140003dc5:	48 89 c2             	mov    %rax,%rdx
   140003dc8:	48 8d 05 23 f7 00 00 	lea    0xf723(%rip),%rax        # 1400134f2 <.rdata+0x4a2>
   140003dcf:	48 89 c1             	mov    %rax,%rcx
   140003dd2:	e8 50 ea ff ff       	call   140002827 <type_array__create>
   140003dd7:	48 89 85 30 03 00 00 	mov    %rax,0x330(%rbp)
   140003dde:	48 8d 05 0f f7 00 00 	lea    0xf70f(%rip),%rax        # 1400134f4 <.rdata+0x4a4>
   140003de5:	48 89 c1             	mov    %rax,%rcx
   140003de8:	e8 64 e8 ff ff       	call   140002651 <type_union__create>
   140003ded:	48 89 85 28 03 00 00 	mov    %rax,0x328(%rbp)
   140003df4:	4c 8b 85 40 03 00 00 	mov    0x340(%rbp),%r8
   140003dfb:	48 8b 95 30 03 00 00 	mov    0x330(%rbp),%rdx
   140003e02:	48 8b 85 28 03 00 00 	mov    0x328(%rbp),%rax
   140003e09:	48 c7 44 24 28 00 00 	movq   $0x0,0x28(%rsp)
   140003e10:	00 00 
   140003e12:	48 8d 0d c3 f6 00 00 	lea    0xf6c3(%rip),%rcx        # 1400134dc <.rdata+0x48c>
   140003e19:	48 89 4c 24 20       	mov    %rcx,0x20(%rsp)
   140003e1e:	4d 89 c1             	mov    %r8,%r9
   140003e21:	4c 8d 05 b0 f6 00 00 	lea    0xf6b0(%rip),%r8        # 1400134d8 <.rdata+0x488>
   140003e28:	48 89 c1             	mov    %rax,%rcx
   140003e2b:	e8 5c f8 ff ff       	call   14000368c <_type_union__add_multiple>
   140003e30:	48 8d 05 bf f6 00 00 	lea    0xf6bf(%rip),%rax        # 1400134f6 <.rdata+0x4a6>
   140003e37:	48 89 c1             	mov    %rax,%rcx
   140003e3a:	e8 3c e6 ff ff       	call   14000247b <type_struct__create>
   140003e3f:	48 89 85 20 03 00 00 	mov    %rax,0x320(%rbp)
   140003e46:	4c 8b 85 b8 03 00 00 	mov    0x3b8(%rbp),%r8
   140003e4d:	48 8b 95 a8 03 00 00 	mov    0x3a8(%rbp),%rdx
   140003e54:	48 8b 85 20 03 00 00 	mov    0x320(%rbp),%rax
   140003e5b:	48 c7 44 24 28 00 00 	movq   $0x0,0x28(%rsp)
   140003e62:	00 00 
   140003e64:	48 8d 0d 71 f6 00 00 	lea    0xf671(%rip),%rcx        # 1400134dc <.rdata+0x48c>
   140003e6b:	48 89 4c 24 20       	mov    %rcx,0x20(%rsp)
   140003e70:	4d 89 c1             	mov    %r8,%r9
   140003e73:	4c 8d 05 5e f6 00 00 	lea    0xf65e(%rip),%r8        # 1400134d8 <.rdata+0x488>
   140003e7a:	48 89 c1             	mov    %rax,%rcx
   140003e7d:	e8 f7 f6 ff ff       	call   140003579 <_type_struct__add_multiple>
   140003e82:	48 8b 85 20 03 00 00 	mov    0x320(%rbp),%rax
   140003e89:	ba 01 00 00 00       	mov    $0x1,%edx
   140003e8e:	48 89 c1             	mov    %rax,%rcx
   140003e91:	e8 ee e0 ff ff       	call   140001f84 <type__set_max_alignment>
   140003e96:	48 8d 05 5b f6 00 00 	lea    0xf65b(%rip),%rax        # 1400134f8 <.rdata+0x4a8>
   140003e9d:	48 89 c1             	mov    %rax,%rcx
   140003ea0:	e8 d6 e5 ff ff       	call   14000247b <type_struct__create>
   140003ea5:	48 89 85 18 03 00 00 	mov    %rax,0x318(%rbp)
   140003eac:	4c 8b 85 28 03 00 00 	mov    0x328(%rbp),%r8
   140003eb3:	48 8b 95 20 03 00 00 	mov    0x320(%rbp),%rdx
   140003eba:	48 8b 85 18 03 00 00 	mov    0x318(%rbp),%rax
   140003ec1:	48 c7 44 24 28 00 00 	movq   $0x0,0x28(%rsp)
   140003ec8:	00 00 
   140003eca:	48 8d 0d 0b f6 00 00 	lea    0xf60b(%rip),%rcx        # 1400134dc <.rdata+0x48c>
   140003ed1:	48 89 4c 24 20       	mov    %rcx,0x20(%rsp)
   140003ed6:	4d 89 c1             	mov    %r8,%r9
   140003ed9:	4c 8d 05 f8 f5 00 00 	lea    0xf5f8(%rip),%r8        # 1400134d8 <.rdata+0x488>
   140003ee0:	48 89 c1             	mov    %rax,%rcx
   140003ee3:	e8 91 f6 ff ff       	call   140003579 <_type_struct__add_multiple>
   140003ee8:	48 8b 85 18 03 00 00 	mov    0x318(%rbp),%rax
   140003eef:	ba 00 04 00 00       	mov    $0x400,%edx
   140003ef4:	48 89 c1             	mov    %rax,%rcx
   140003ef7:	e8 ed e1 ff ff       	call   1400020e9 <type__set_alignment>
   140003efc:	48 8d 05 f7 f5 00 00 	lea    0xf5f7(%rip),%rax        # 1400134fa <.rdata+0x4aa>
   140003f03:	48 89 c1             	mov    %rax,%rcx
   140003f06:	e8 70 e5 ff ff       	call   14000247b <type_struct__create>
   140003f0b:	48 89 85 10 03 00 00 	mov    %rax,0x310(%rbp)
   140003f12:	4c 8b 85 28 03 00 00 	mov    0x328(%rbp),%r8
   140003f19:	48 8b 95 18 03 00 00 	mov    0x318(%rbp),%rdx
   140003f20:	48 8b 85 10 03 00 00 	mov    0x310(%rbp),%rax
   140003f27:	48 c7 44 24 28 00 00 	movq   $0x0,0x28(%rsp)
   140003f2e:	00 00 
   140003f30:	48 8d 0d a5 f5 00 00 	lea    0xf5a5(%rip),%rcx        # 1400134dc <.rdata+0x48c>
   140003f37:	48 89 4c 24 20       	mov    %rcx,0x20(%rsp)
   140003f3c:	4d 89 c1             	mov    %r8,%r9
   140003f3f:	4c 8d 05 92 f5 00 00 	lea    0xf592(%rip),%r8        # 1400134d8 <.rdata+0x488>
   140003f46:	48 89 c1             	mov    %rax,%rcx
   140003f49:	e8 2b f6 ff ff       	call   140003579 <_type_struct__add_multiple>
   140003f4e:	48 8b 85 10 03 00 00 	mov    0x310(%rbp),%rax
   140003f55:	ba 01 00 00 00       	mov    $0x1,%edx
   140003f5a:	48 89 c1             	mov    %rax,%rcx
   140003f5d:	e8 22 e0 ff ff       	call   140001f84 <type__set_max_alignment>
   140003f62:	48 8d 05 93 f5 00 00 	lea    0xf593(%rip),%rax        # 1400134fc <.rdata+0x4ac>
   140003f69:	48 89 c1             	mov    %rax,%rcx
   140003f6c:	e8 0a e5 ff ff       	call   14000247b <type_struct__create>
   140003f71:	48 89 85 08 03 00 00 	mov    %rax,0x308(%rbp)
   140003f78:	4c 8b 85 20 03 00 00 	mov    0x320(%rbp),%r8
   140003f7f:	48 8b 95 b8 03 00 00 	mov    0x3b8(%rbp),%rdx
   140003f86:	48 8b 85 08 03 00 00 	mov    0x308(%rbp),%rax
   140003f8d:	48 c7 44 24 28 00 00 	movq   $0x0,0x28(%rsp)
   140003f94:	00 00 
   140003f96:	48 8d 0d 3f f5 00 00 	lea    0xf53f(%rip),%rcx        # 1400134dc <.rdata+0x48c>
   140003f9d:	48 89 4c 24 20       	mov    %rcx,0x20(%rsp)
   140003fa2:	4d 89 c1             	mov    %r8,%r9
   140003fa5:	4c 8d 05 2c f5 00 00 	lea    0xf52c(%rip),%r8        # 1400134d8 <.rdata+0x488>
   140003fac:	48 89 c1             	mov    %rax,%rcx
   140003faf:	e8 c5 f5 ff ff       	call   140003579 <_type_struct__add_multiple>
   140003fb4:	48 8b 85 b8 03 00 00 	mov    0x3b8(%rbp),%rax
   140003fbb:	41 b8 49 00 00 00    	mov    $0x49,%r8d
   140003fc1:	48 89 c2             	mov    %rax,%rdx
   140003fc4:	48 8d 05 33 f5 00 00 	lea    0xf533(%rip),%rax        # 1400134fe <.rdata+0x4ae>
   140003fcb:	48 89 c1             	mov    %rax,%rcx
   140003fce:	e8 54 e8 ff ff       	call   140002827 <type_array__create>
   140003fd3:	48 89 85 00 03 00 00 	mov    %rax,0x300(%rbp)
   140003fda:	48 8d 05 1f f5 00 00 	lea    0xf51f(%rip),%rax        # 140013500 <.rdata+0x4b0>
   140003fe1:	48 89 c1             	mov    %rax,%rcx
   140003fe4:	e8 92 e4 ff ff       	call   14000247b <type_struct__create>
   140003fe9:	48 89 85 f8 02 00 00 	mov    %rax,0x2f8(%rbp)
   140003ff0:	48 8b 95 00 03 00 00 	mov    0x300(%rbp),%rdx
   140003ff7:	48 8b 85 f8 02 00 00 	mov    0x2f8(%rbp),%rax
   140003ffe:	41 b9 00 00 00 00    	mov    $0x0,%r9d
   140004004:	4c 8d 05 cd f4 00 00 	lea    0xf4cd(%rip),%r8        # 1400134d8 <.rdata+0x488>
   14000400b:	48 89 c1             	mov    %rax,%rcx
   14000400e:	e8 66 f5 ff ff       	call   140003579 <_type_struct__add_multiple>
   140004013:	48 8d 05 e8 f4 00 00 	lea    0xf4e8(%rip),%rax        # 140013502 <.rdata+0x4b2>
   14000401a:	48 89 c1             	mov    %rax,%rcx
   14000401d:	e8 59 e4 ff ff       	call   14000247b <type_struct__create>
   140004022:	48 89 85 f0 02 00 00 	mov    %rax,0x2f0(%rbp)
   140004029:	4c 8b 85 20 03 00 00 	mov    0x320(%rbp),%r8
   140004030:	48 8b 95 f8 02 00 00 	mov    0x2f8(%rbp),%rdx
   140004037:	48 8b 85 f0 02 00 00 	mov    0x2f0(%rbp),%rax
   14000403e:	48 c7 44 24 38 00 00 	movq   $0x0,0x38(%rsp)
   140004045:	00 00 
   140004047:	48 8d 0d 97 f4 00 00 	lea    0xf497(%rip),%rcx        # 1400134e5 <.rdata+0x495>
   14000404e:	48 89 4c 24 30       	mov    %rcx,0x30(%rsp)
   140004053:	48 8b 8d 08 03 00 00 	mov    0x308(%rbp),%rcx
   14000405a:	48 89 4c 24 28       	mov    %rcx,0x28(%rsp)
   14000405f:	48 8d 0d 76 f4 00 00 	lea    0xf476(%rip),%rcx        # 1400134dc <.rdata+0x48c>
   140004066:	48 89 4c 24 20       	mov    %rcx,0x20(%rsp)
   14000406b:	4d 89 c1             	mov    %r8,%r9
   14000406e:	4c 8d 05 63 f4 00 00 	lea    0xf463(%rip),%r8        # 1400134d8 <.rdata+0x488>
   140004075:	48 89 c1             	mov    %rax,%rcx
   140004078:	e8 fc f4 ff ff       	call   140003579 <_type_struct__add_multiple>
   14000407d:	48 8b 85 f0 02 00 00 	mov    0x2f0(%rbp),%rax
   140004084:	41 b8 0d 00 00 00    	mov    $0xd,%r8d
   14000408a:	48 89 c2             	mov    %rax,%rdx
   14000408d:	48 8d 05 70 f4 00 00 	lea    0xf470(%rip),%rax        # 140013504 <.rdata+0x4b4>
   140004094:	48 89 c1             	mov    %rax,%rcx
   140004097:	e8 8b e7 ff ff       	call   140002827 <type_array__create>
   14000409c:	48 89 85 e8 02 00 00 	mov    %rax,0x2e8(%rbp)
   1400040a3:	48 8d 05 5c f4 00 00 	lea    0xf45c(%rip),%rax        # 140013506 <.rdata+0x4b6>
   1400040aa:	48 89 c1             	mov    %rax,%rcx
   1400040ad:	e8 c9 e3 ff ff       	call   14000247b <type_struct__create>
   1400040b2:	48 89 85 e0 02 00 00 	mov    %rax,0x2e0(%rbp)
   1400040b9:	4c 8b 85 e8 02 00 00 	mov    0x2e8(%rbp),%r8
   1400040c0:	48 8b 95 b8 03 00 00 	mov    0x3b8(%rbp),%rdx
   1400040c7:	48 8b 85 e0 02 00 00 	mov    0x2e0(%rbp),%rax
   1400040ce:	48 c7 44 24 58 00 00 	movq   $0x0,0x58(%rsp)
   1400040d5:	00 00 
   1400040d7:	48 8d 0d 2a f4 00 00 	lea    0xf42a(%rip),%rcx        # 140013508 <.rdata+0x4b8>
   1400040de:	48 89 4c 24 50       	mov    %rcx,0x50(%rsp)
   1400040e3:	48 8b 8d f8 02 00 00 	mov    0x2f8(%rbp),%rcx
   1400040ea:	48 89 4c 24 48       	mov    %rcx,0x48(%rsp)
   1400040ef:	48 8d 0d f7 f3 00 00 	lea    0xf3f7(%rip),%rcx        # 1400134ed <.rdata+0x49d>
   1400040f6:	48 89 4c 24 40       	mov    %rcx,0x40(%rsp)
   1400040fb:	48 8b 8d f0 02 00 00 	mov    0x2f0(%rbp),%rcx
   140004102:	48 89 4c 24 38       	mov    %rcx,0x38(%rsp)
   140004107:	48 8d 0d d7 f3 00 00 	lea    0xf3d7(%rip),%rcx        # 1400134e5 <.rdata+0x495>
   14000410e:	48 89 4c 24 30       	mov    %rcx,0x30(%rsp)
   140004113:	48 8b 8d a8 03 00 00 	mov    0x3a8(%rbp),%rcx
   14000411a:	48 89 4c 24 28       	mov    %rcx,0x28(%rsp)
   14000411f:	48 8d 0d b6 f3 00 00 	lea    0xf3b6(%rip),%rcx        # 1400134dc <.rdata+0x48c>
   140004126:	48 89 4c 24 20       	mov    %rcx,0x20(%rsp)
   14000412b:	4d 89 c1             	mov    %r8,%r9
   14000412e:	4c 8d 05 a3 f3 00 00 	lea    0xf3a3(%rip),%r8        # 1400134d8 <.rdata+0x488>
   140004135:	48 89 c1             	mov    %rax,%rcx
   140004138:	e8 3c f4 ff ff       	call   140003579 <_type_struct__add_multiple>
   14000413d:	48 8b 85 f0 02 00 00 	mov    0x2f0(%rbp),%rax
   140004144:	41 b8 27 00 00 00    	mov    $0x27,%r8d
   14000414a:	48 89 c2             	mov    %rax,%rdx
   14000414d:	48 8d 05 ba f3 00 00 	lea    0xf3ba(%rip),%rax        # 14001350e <.rdata+0x4be>
   140004154:	48 89 c1             	mov    %rax,%rcx
   140004157:	e8 cb e6 ff ff       	call   140002827 <type_array__create>
   14000415c:	48 89 85 d8 02 00 00 	mov    %rax,0x2d8(%rbp)
   140004163:	48 8b 85 b8 03 00 00 	mov    0x3b8(%rbp),%rax
   14000416a:	41 b8 07 00 00 00    	mov    $0x7,%r8d
   140004170:	48 89 c2             	mov    %rax,%rdx
   140004173:	48 8d 05 96 f3 00 00 	lea    0xf396(%rip),%rax        # 140013510 <.rdata+0x4c0>
   14000417a:	48 89 c1             	mov    %rax,%rcx
   14000417d:	e8 a5 e6 ff ff       	call   140002827 <type_array__create>
   140004182:	48 89 85 d0 02 00 00 	mov    %rax,0x2d0(%rbp)
   140004189:	48 8b 85 d0 02 00 00 	mov    0x2d0(%rbp),%rax
   140004190:	41 b8 27 00 00 00    	mov    $0x27,%r8d
   140004196:	48 89 c2             	mov    %rax,%rdx
   140004199:	48 8d 05 72 f3 00 00 	lea    0xf372(%rip),%rax        # 140013512 <.rdata+0x4c2>
   1400041a0:	48 89 c1             	mov    %rax,%rcx
   1400041a3:	e8 7f e6 ff ff       	call   140002827 <type_array__create>
   1400041a8:	48 89 85 c8 02 00 00 	mov    %rax,0x2c8(%rbp)
   1400041af:	48 8d 05 5e f3 00 00 	lea    0xf35e(%rip),%rax        # 140013514 <.rdata+0x4c4>
   1400041b6:	48 89 c1             	mov    %rax,%rcx
   1400041b9:	e8 bd e2 ff ff       	call   14000247b <type_struct__create>
   1400041be:	48 89 85 c0 02 00 00 	mov    %rax,0x2c0(%rbp)
   1400041c5:	4c 8b 85 c8 02 00 00 	mov    0x2c8(%rbp),%r8
   1400041cc:	48 8b 95 d8 02 00 00 	mov    0x2d8(%rbp),%rdx
   1400041d3:	48 8b 85 c0 02 00 00 	mov    0x2c0(%rbp),%rax
   1400041da:	48 c7 44 24 28 00 00 	movq   $0x0,0x28(%rsp)
   1400041e1:	00 00 
   1400041e3:	48 8d 0d fb f2 00 00 	lea    0xf2fb(%rip),%rcx        # 1400134e5 <.rdata+0x495>
   1400041ea:	48 89 4c 24 20       	mov    %rcx,0x20(%rsp)
   1400041ef:	4d 89 c1             	mov    %r8,%r9
   1400041f2:	4c 8d 05 e3 f2 00 00 	lea    0xf2e3(%rip),%r8        # 1400134dc <.rdata+0x48c>
   1400041f9:	48 89 c1             	mov    %rax,%rcx
   1400041fc:	e8 78 f3 ff ff       	call   140003579 <_type_struct__add_multiple>
   140004201:	48 8b 85 e0 02 00 00 	mov    0x2e0(%rbp),%rax
   140004208:	41 b8 49 00 00 00    	mov    $0x49,%r8d
   14000420e:	48 89 c2             	mov    %rax,%rdx
   140004211:	48 8d 05 fe f2 00 00 	lea    0xf2fe(%rip),%rax        # 140013516 <.rdata+0x4c6>
   140004218:	48 89 c1             	mov    %rax,%rcx
   14000421b:	e8 07 e6 ff ff       	call   140002827 <type_array__create>
   140004220:	48 89 85 b8 02 00 00 	mov    %rax,0x2b8(%rbp)
   140004227:	48 8d 05 ea f2 00 00 	lea    0xf2ea(%rip),%rax        # 140013518 <.rdata+0x4c8>
   14000422e:	48 89 c1             	mov    %rax,%rcx
   140004231:	e8 45 e2 ff ff       	call   14000247b <type_struct__create>
   140004236:	48 89 85 b0 02 00 00 	mov    %rax,0x2b0(%rbp)
   14000423d:	4c 8b 85 b0 03 00 00 	mov    0x3b0(%rbp),%r8
   140004244:	48 8b 95 d0 02 00 00 	mov    0x2d0(%rbp),%rdx
   14000424b:	48 8b 85 b0 02 00 00 	mov    0x2b0(%rbp),%rax
   140004252:	48 c7 44 24 28 00 00 	movq   $0x0,0x28(%rsp)
   140004259:	00 00 
   14000425b:	48 8d 0d 83 f2 00 00 	lea    0xf283(%rip),%rcx        # 1400134e5 <.rdata+0x495>
   140004262:	48 89 4c 24 20       	mov    %rcx,0x20(%rsp)
   140004267:	4d 89 c1             	mov    %r8,%r9
   14000426a:	4c 8d 05 6b f2 00 00 	lea    0xf26b(%rip),%r8        # 1400134dc <.rdata+0x48c>
   140004271:	48 89 c1             	mov    %rax,%rcx
   140004274:	e8 00 f3 ff ff       	call   140003579 <_type_struct__add_multiple>
   140004279:	48 8b 85 b0 02 00 00 	mov    0x2b0(%rbp),%rax
   140004280:	41 b8 27 00 00 00    	mov    $0x27,%r8d
   140004286:	48 89 c2             	mov    %rax,%rdx
   140004289:	48 8d 05 8a f2 00 00 	lea    0xf28a(%rip),%rax        # 14001351a <.rdata+0x4ca>
   140004290:	48 89 c1             	mov    %rax,%rcx
   140004293:	e8 8f e5 ff ff       	call   140002827 <type_array__create>
   140004298:	48 89 85 a8 02 00 00 	mov    %rax,0x2a8(%rbp)
   14000429f:	48 8d 05 76 f2 00 00 	lea    0xf276(%rip),%rax        # 14001351c <.rdata+0x4cc>
   1400042a6:	48 89 c1             	mov    %rax,%rcx
   1400042a9:	e8 cd e1 ff ff       	call   14000247b <type_struct__create>
   1400042ae:	48 89 85 a0 02 00 00 	mov    %rax,0x2a0(%rbp)
   1400042b5:	4c 8b 85 e0 02 00 00 	mov    0x2e0(%rbp),%r8
   1400042bc:	48 8b 95 c0 02 00 00 	mov    0x2c0(%rbp),%rdx
   1400042c3:	48 8b 85 a0 02 00 00 	mov    0x2a0(%rbp),%rax
   1400042ca:	48 c7 44 24 38 00 00 	movq   $0x0,0x38(%rsp)
   1400042d1:	00 00 
   1400042d3:	48 8d 0d 13 f2 00 00 	lea    0xf213(%rip),%rcx        # 1400134ed <.rdata+0x49d>
   1400042da:	48 89 4c 24 30       	mov    %rcx,0x30(%rsp)
   1400042df:	48 8b 8d a8 02 00 00 	mov    0x2a8(%rbp),%rcx
   1400042e6:	48 89 4c 24 28       	mov    %rcx,0x28(%rsp)
   1400042eb:	48 8d 0d f3 f1 00 00 	lea    0xf1f3(%rip),%rcx        # 1400134e5 <.rdata+0x495>
   1400042f2:	48 89 4c 24 20       	mov    %rcx,0x20(%rsp)
   1400042f7:	4d 89 c1             	mov    %r8,%r9
   1400042fa:	4c 8d 05 db f1 00 00 	lea    0xf1db(%rip),%r8        # 1400134dc <.rdata+0x48c>
   140004301:	48 89 c1             	mov    %rax,%rcx
   140004304:	e8 70 f2 ff ff       	call   140003579 <_type_struct__add_multiple>
   140004309:	48 8d 05 0e f2 00 00 	lea    0xf20e(%rip),%rax        # 14001351e <.rdata+0x4ce>
   140004310:	48 89 c1             	mov    %rax,%rcx
   140004313:	e8 39 e3 ff ff       	call   140002651 <type_union__create>
   140004318:	48 89 85 98 02 00 00 	mov    %rax,0x298(%rbp)
   14000431f:	4c 8b 85 70 03 00 00 	mov    0x370(%rbp),%r8
   140004326:	48 8b 95 a8 03 00 00 	mov    0x3a8(%rbp),%rdx
   14000432d:	48 8b 85 98 02 00 00 	mov    0x298(%rbp),%rax
   140004334:	48 c7 44 24 38 00 00 	movq   $0x0,0x38(%rsp)
   14000433b:	00 00 
   14000433d:	48 8d 0d a9 f1 00 00 	lea    0xf1a9(%rip),%rcx        # 1400134ed <.rdata+0x49d>
   140004344:	48 89 4c 24 30       	mov    %rcx,0x30(%rsp)
   140004349:	48 8b 8d a0 02 00 00 	mov    0x2a0(%rbp),%rcx
   140004350:	48 89 4c 24 28       	mov    %rcx,0x28(%rsp)
   140004355:	48 8d 0d 89 f1 00 00 	lea    0xf189(%rip),%rcx        # 1400134e5 <.rdata+0x495>
   14000435c:	48 89 4c 24 20       	mov    %rcx,0x20(%rsp)
   140004361:	4d 89 c1             	mov    %r8,%r9
   140004364:	4c 8d 05 71 f1 00 00 	lea    0xf171(%rip),%r8        # 1400134dc <.rdata+0x48c>
   14000436b:	48 89 c1             	mov    %rax,%rcx
   14000436e:	e8 19 f3 ff ff       	call   14000368c <_type_union__add_multiple>
   140004373:	48 8d 05 a6 f1 00 00 	lea    0xf1a6(%rip),%rax        # 140013520 <.rdata+0x4d0>
   14000437a:	48 89 c1             	mov    %rax,%rcx
   14000437d:	e8 f9 e0 ff ff       	call   14000247b <type_struct__create>
   140004382:	48 89 85 90 02 00 00 	mov    %rax,0x290(%rbp)
   140004389:	48 8b 95 98 02 00 00 	mov    0x298(%rbp),%rdx
   140004390:	48 8b 85 90 02 00 00 	mov    0x290(%rbp),%rax
   140004397:	41 b9 00 00 00 00    	mov    $0x0,%r9d
   14000439d:	4c 8d 05 34 f1 00 00 	lea    0xf134(%rip),%r8        # 1400134d8 <.rdata+0x488>
   1400043a4:	48 89 c1             	mov    %rax,%rcx
   1400043a7:	e8 cd f1 ff ff       	call   140003579 <_type_struct__add_multiple>
   1400043ac:	48 8d 05 6f f1 00 00 	lea    0xf16f(%rip),%rax        # 140013522 <.rdata+0x4d2>
   1400043b3:	48 89 c1             	mov    %rax,%rcx
   1400043b6:	e8 c0 e0 ff ff       	call   14000247b <type_struct__create>
   1400043bb:	48 89 85 88 02 00 00 	mov    %rax,0x288(%rbp)
   1400043c2:	4c 8b 85 20 03 00 00 	mov    0x320(%rbp),%r8
   1400043c9:	48 8b 95 f8 02 00 00 	mov    0x2f8(%rbp),%rdx
   1400043d0:	48 8b 85 88 02 00 00 	mov    0x288(%rbp),%rax
   1400043d7:	48 c7 44 24 38 00 00 	movq   $0x0,0x38(%rsp)
   1400043de:	00 00 
   1400043e0:	48 8d 0d fe f0 00 00 	lea    0xf0fe(%rip),%rcx        # 1400134e5 <.rdata+0x495>
   1400043e7:	48 89 4c 24 30       	mov    %rcx,0x30(%rsp)
   1400043ec:	48 8b 8d e0 02 00 00 	mov    0x2e0(%rbp),%rcx
   1400043f3:	48 89 4c 24 28       	mov    %rcx,0x28(%rsp)
   1400043f8:	48 8d 0d dd f0 00 00 	lea    0xf0dd(%rip),%rcx        # 1400134dc <.rdata+0x48c>
   1400043ff:	48 89 4c 24 20       	mov    %rcx,0x20(%rsp)
   140004404:	4d 89 c1             	mov    %r8,%r9
   140004407:	4c 8d 05 ca f0 00 00 	lea    0xf0ca(%rip),%r8        # 1400134d8 <.rdata+0x488>
   14000440e:	48 89 c1             	mov    %rax,%rcx
   140004411:	e8 63 f1 ff ff       	call   140003579 <_type_struct__add_multiple>
   140004416:	48 8d 05 07 f1 00 00 	lea    0xf107(%rip),%rax        # 140013524 <.rdata+0x4d4>
   14000441d:	48 89 c1             	mov    %rax,%rcx
   140004420:	e8 2c e2 ff ff       	call   140002651 <type_union__create>
   140004425:	48 89 85 80 02 00 00 	mov    %rax,0x280(%rbp)
   14000442c:	4c 8b 85 88 02 00 00 	mov    0x288(%rbp),%r8
   140004433:	48 8b 95 08 03 00 00 	mov    0x308(%rbp),%rdx
   14000443a:	48 8b 85 80 02 00 00 	mov    0x280(%rbp),%rax
   140004441:	48 c7 44 24 58 00 00 	movq   $0x0,0x58(%rsp)
   140004448:	00 00 
   14000444a:	48 8d 0d b7 f0 00 00 	lea    0xf0b7(%rip),%rcx        # 140013508 <.rdata+0x4b8>
   140004451:	48 89 4c 24 50       	mov    %rcx,0x50(%rsp)
   140004456:	48 8b 8d a0 02 00 00 	mov    0x2a0(%rbp),%rcx
   14000445d:	48 89 4c 24 48       	mov    %rcx,0x48(%rsp)
   140004462:	48 8d 0d 84 f0 00 00 	lea    0xf084(%rip),%rcx        # 1400134ed <.rdata+0x49d>
   140004469:	48 89 4c 24 40       	mov    %rcx,0x40(%rsp)
   14000446e:	48 8b 8d e0 02 00 00 	mov    0x2e0(%rbp),%rcx
   140004475:	48 89 4c 24 38       	mov    %rcx,0x38(%rsp)
   14000447a:	48 8d 0d 64 f0 00 00 	lea    0xf064(%rip),%rcx        # 1400134e5 <.rdata+0x495>
   140004481:	48 89 4c 24 30       	mov    %rcx,0x30(%rsp)
   140004486:	48 8b 8d f0 02 00 00 	mov    0x2f0(%rbp),%rcx
   14000448d:	48 89 4c 24 28       	mov    %rcx,0x28(%rsp)
   140004492:	48 8d 0d 43 f0 00 00 	lea    0xf043(%rip),%rcx        # 1400134dc <.rdata+0x48c>
   140004499:	48 89 4c 24 20       	mov    %rcx,0x20(%rsp)
   14000449e:	4d 89 c1             	mov    %r8,%r9
   1400044a1:	4c 8d 05 30 f0 00 00 	lea    0xf030(%rip),%r8        # 1400134d8 <.rdata+0x488>
   1400044a8:	48 89 c1             	mov    %rax,%rcx
   1400044ab:	e8 dc f1 ff ff       	call   14000368c <_type_union__add_multiple>
   1400044b0:	48 8d 05 6f f0 00 00 	lea    0xf06f(%rip),%rax        # 140013526 <.rdata+0x4d6>
   1400044b7:	48 89 c1             	mov    %rax,%rcx
   1400044ba:	e8 bc df ff ff       	call   14000247b <type_struct__create>
   1400044bf:	48 89 85 78 02 00 00 	mov    %rax,0x278(%rbp)
   1400044c6:	4c 8b 85 f8 02 00 00 	mov    0x2f8(%rbp),%r8
   1400044cd:	48 8b 95 80 02 00 00 	mov    0x280(%rbp),%rdx
   1400044d4:	48 8b 85 78 02 00 00 	mov    0x278(%rbp),%rax
   1400044db:	48 c7 44 24 58 00 00 	movq   $0x0,0x58(%rsp)
   1400044e2:	00 00 
   1400044e4:	48 8d 0d 02 f0 00 00 	lea    0xf002(%rip),%rcx        # 1400134ed <.rdata+0x49d>
   1400044eb:	48 89 4c 24 50       	mov    %rcx,0x50(%rsp)
   1400044f0:	48 8b 8d 90 02 00 00 	mov    0x290(%rbp),%rcx
   1400044f7:	48 89 4c 24 48       	mov    %rcx,0x48(%rsp)
   1400044fc:	48 8d 0d ea ef 00 00 	lea    0xefea(%rip),%rcx        # 1400134ed <.rdata+0x49d>
   140004503:	48 89 4c 24 40       	mov    %rcx,0x40(%rsp)
   140004508:	48 8b 8d e0 02 00 00 	mov    0x2e0(%rbp),%rcx
   14000450f:	48 89 4c 24 38       	mov    %rcx,0x38(%rsp)
   140004514:	48 8d 0d ca ef 00 00 	lea    0xefca(%rip),%rcx        # 1400134e5 <.rdata+0x495>
   14000451b:	48 89 4c 24 30       	mov    %rcx,0x30(%rsp)
   140004520:	48 8b 8d f0 02 00 00 	mov    0x2f0(%rbp),%rcx
   140004527:	48 89 4c 24 28       	mov    %rcx,0x28(%rsp)
   14000452c:	48 8d 0d a9 ef 00 00 	lea    0xefa9(%rip),%rcx        # 1400134dc <.rdata+0x48c>
   140004533:	48 89 4c 24 20       	mov    %rcx,0x20(%rsp)
   140004538:	4d 89 c1             	mov    %r8,%r9
   14000453b:	4c 8d 05 96 ef 00 00 	lea    0xef96(%rip),%r8        # 1400134d8 <.rdata+0x488>
   140004542:	48 89 c1             	mov    %rax,%rcx
   140004545:	e8 2f f0 ff ff       	call   140003579 <_type_struct__add_multiple>
   14000454a:	48 8b 85 f8 02 00 00 	mov    0x2f8(%rbp),%rax
   140004551:	41 b8 86 03 00 00    	mov    $0x386,%r8d
   140004557:	48 89 c2             	mov    %rax,%rdx
   14000455a:	48 8d 05 c7 ef 00 00 	lea    0xefc7(%rip),%rax        # 140013528 <.rdata+0x4d8>
   140004561:	48 89 c1             	mov    %rax,%rcx
   140004564:	e8 be e2 ff ff       	call   140002827 <type_array__create>
   140004569:	48 89 85 70 02 00 00 	mov    %rax,0x270(%rbp)
   140004570:	48 8d 05 b3 ef 00 00 	lea    0xefb3(%rip),%rax        # 14001352a <.rdata+0x4da>
   140004577:	48 89 c1             	mov    %rax,%rcx
   14000457a:	e8 d2 e0 ff ff       	call   140002651 <type_union__create>
   14000457f:	48 89 85 68 02 00 00 	mov    %rax,0x268(%rbp)
   140004586:	4c 8b 85 70 02 00 00 	mov    0x270(%rbp),%r8
   14000458d:	48 8b 95 20 03 00 00 	mov    0x320(%rbp),%rdx
   140004594:	48 8b 85 68 02 00 00 	mov    0x268(%rbp),%rax
   14000459b:	48 c7 44 24 38 00 00 	movq   $0x0,0x38(%rsp)
   1400045a2:	00 00 
   1400045a4:	48 8d 0d 3a ef 00 00 	lea    0xef3a(%rip),%rcx        # 1400134e5 <.rdata+0x495>
   1400045ab:	48 89 4c 24 30       	mov    %rcx,0x30(%rsp)
   1400045b0:	48 8b 8d e0 02 00 00 	mov    0x2e0(%rbp),%rcx
   1400045b7:	48 89 4c 24 28       	mov    %rcx,0x28(%rsp)
   1400045bc:	48 8d 0d 19 ef 00 00 	lea    0xef19(%rip),%rcx        # 1400134dc <.rdata+0x48c>
   1400045c3:	48 89 4c 24 20       	mov    %rcx,0x20(%rsp)
   1400045c8:	4d 89 c1             	mov    %r8,%r9
   1400045cb:	4c 8d 05 06 ef 00 00 	lea    0xef06(%rip),%r8        # 1400134d8 <.rdata+0x488>
   1400045d2:	48 89 c1             	mov    %rax,%rcx
   1400045d5:	e8 b2 f0 ff ff       	call   14000368c <_type_union__add_multiple>
   1400045da:	48 8b 85 f0 02 00 00 	mov    0x2f0(%rbp),%rax
   1400045e1:	41 b8 27 00 00 00    	mov    $0x27,%r8d
   1400045e7:	48 89 c2             	mov    %rax,%rdx
   1400045ea:	48 8d 05 3b ef 00 00 	lea    0xef3b(%rip),%rax        # 14001352c <.rdata+0x4dc>
   1400045f1:	48 89 c1             	mov    %rax,%rcx
   1400045f4:	e8 2e e2 ff ff       	call   140002827 <type_array__create>
   1400045f9:	48 89 85 60 02 00 00 	mov    %rax,0x260(%rbp)
   140004600:	48 8d 05 27 ef 00 00 	lea    0xef27(%rip),%rax        # 14001352e <.rdata+0x4de>
   140004607:	48 89 c1             	mov    %rax,%rcx
   14000460a:	e8 6c de ff ff       	call   14000247b <type_struct__create>
   14000460f:	48 89 85 58 02 00 00 	mov    %rax,0x258(%rbp)
   140004616:	4c 8b 85 60 02 00 00 	mov    0x260(%rbp),%r8
   14000461d:	48 8b 95 78 02 00 00 	mov    0x278(%rbp),%rdx
   140004624:	48 8b 85 58 02 00 00 	mov    0x258(%rbp),%rax
   14000462b:	48 c7 44 24 38 00 00 	movq   $0x0,0x38(%rsp)
   140004632:	00 00 
   140004634:	48 8d 0d aa ee 00 00 	lea    0xeeaa(%rip),%rcx        # 1400134e5 <.rdata+0x495>
   14000463b:	48 89 4c 24 30       	mov    %rcx,0x30(%rsp)
   140004640:	48 8b 8d 68 02 00 00 	mov    0x268(%rbp),%rcx
   140004647:	48 89 4c 24 28       	mov    %rcx,0x28(%rsp)
   14000464c:	48 8d 0d 89 ee 00 00 	lea    0xee89(%rip),%rcx        # 1400134dc <.rdata+0x48c>
   140004653:	48 89 4c 24 20       	mov    %rcx,0x20(%rsp)
   140004658:	4d 89 c1             	mov    %r8,%r9
   14000465b:	4c 8d 05 76 ee 00 00 	lea    0xee76(%rip),%r8        # 1400134d8 <.rdata+0x488>
   140004662:	48 89 c1             	mov    %rax,%rcx
   140004665:	e8 0f ef ff ff       	call   140003579 <_type_struct__add_multiple>
   14000466a:	48 8b 85 68 02 00 00 	mov    0x268(%rbp),%rax
   140004671:	41 b8 20 00 00 00    	mov    $0x20,%r8d
   140004677:	48 89 c2             	mov    %rax,%rdx
   14000467a:	48 8d 05 af ee 00 00 	lea    0xeeaf(%rip),%rax        # 140013530 <.rdata+0x4e0>
   140004681:	48 89 c1             	mov    %rax,%rcx
   140004684:	e8 9e e1 ff ff       	call   140002827 <type_array__create>
   140004689:	48 89 85 50 02 00 00 	mov    %rax,0x250(%rbp)
   140004690:	48 8b 85 58 02 00 00 	mov    0x258(%rbp),%rax
   140004697:	41 b8 32 00 00 00    	mov    $0x32,%r8d
   14000469d:	48 89 c2             	mov    %rax,%rdx
   1400046a0:	48 8d 05 8c ee 00 00 	lea    0xee8c(%rip),%rax        # 140013533 <.rdata+0x4e3>
   1400046a7:	48 89 c1             	mov    %rax,%rcx
   1400046aa:	e8 78 e1 ff ff       	call   140002827 <type_array__create>
   1400046af:	48 89 85 48 02 00 00 	mov    %rax,0x248(%rbp)
   1400046b6:	48 8b 85 68 02 00 00 	mov    0x268(%rbp),%rax
   1400046bd:	41 b8 27 00 00 00    	mov    $0x27,%r8d
   1400046c3:	48 89 c2             	mov    %rax,%rdx
   1400046c6:	48 8d 05 69 ee 00 00 	lea    0xee69(%rip),%rax        # 140013536 <.rdata+0x4e6>
   1400046cd:	48 89 c1             	mov    %rax,%rcx
   1400046d0:	e8 52 e1 ff ff       	call   140002827 <type_array__create>
   1400046d5:	48 89 85 40 02 00 00 	mov    %rax,0x240(%rbp)
   1400046dc:	48 8d 05 56 ee 00 00 	lea    0xee56(%rip),%rax        # 140013539 <.rdata+0x4e9>
   1400046e3:	48 89 c1             	mov    %rax,%rcx
   1400046e6:	e8 66 df ff ff       	call   140002651 <type_union__create>
   1400046eb:	48 89 85 38 02 00 00 	mov    %rax,0x238(%rbp)
   1400046f2:	4c 8b 85 40 02 00 00 	mov    0x240(%rbp),%r8
   1400046f9:	48 8b 95 48 02 00 00 	mov    0x248(%rbp),%rdx
   140004700:	48 8b 85 38 02 00 00 	mov    0x238(%rbp),%rax
   140004707:	48 c7 44 24 28 00 00 	movq   $0x0,0x28(%rsp)
   14000470e:	00 00 
   140004710:	48 8d 0d c5 ed 00 00 	lea    0xedc5(%rip),%rcx        # 1400134dc <.rdata+0x48c>
   140004717:	48 89 4c 24 20       	mov    %rcx,0x20(%rsp)
   14000471c:	4d 89 c1             	mov    %r8,%r9
   14000471f:	4c 8d 05 b2 ed 00 00 	lea    0xedb2(%rip),%r8        # 1400134d8 <.rdata+0x488>
   140004726:	48 89 c1             	mov    %rax,%rcx
   140004729:	e8 5e ef ff ff       	call   14000368c <_type_union__add_multiple>
   14000472e:	48 8b 85 38 02 00 00 	mov    0x238(%rbp),%rax
   140004735:	ba 01 00 00 00       	mov    $0x1,%edx
   14000473a:	48 89 c1             	mov    %rax,%rcx
   14000473d:	e8 42 d8 ff ff       	call   140001f84 <type__set_max_alignment>
   140004742:	48 8d 05 f3 ed 00 00 	lea    0xedf3(%rip),%rax        # 14001353c <.rdata+0x4ec>
   140004749:	48 89 c1             	mov    %rax,%rcx
   14000474c:	e8 2a dd ff ff       	call   14000247b <type_struct__create>
   140004751:	48 89 85 30 02 00 00 	mov    %rax,0x230(%rbp)
   140004758:	4c 8b 85 38 02 00 00 	mov    0x238(%rbp),%r8
   14000475f:	48 8b 95 50 02 00 00 	mov    0x250(%rbp),%rdx
   140004766:	48 8b 85 30 02 00 00 	mov    0x230(%rbp),%rax
   14000476d:	48 c7 44 24 28 00 00 	movq   $0x0,0x28(%rsp)
   140004774:	00 00 
   140004776:	48 8d 0d 5f ed 00 00 	lea    0xed5f(%rip),%rcx        # 1400134dc <.rdata+0x48c>
   14000477d:	48 89 4c 24 20       	mov    %rcx,0x20(%rsp)
   140004782:	4d 89 c1             	mov    %r8,%r9
   140004785:	4c 8d 05 4c ed 00 00 	lea    0xed4c(%rip),%r8        # 1400134d8 <.rdata+0x488>
   14000478c:	48 89 c1             	mov    %rax,%rcx
   14000478f:	e8 e5 ed ff ff       	call   140003579 <_type_struct__add_multiple>
   140004794:	48 8b 85 30 02 00 00 	mov    0x230(%rbp),%rax
   14000479b:	ba 00 04 00 00       	mov    $0x400,%edx
   1400047a0:	48 89 c1             	mov    %rax,%rcx
   1400047a3:	e8 41 d9 ff ff       	call   1400020e9 <type__set_alignment>
   1400047a8:	4c 8d 0d f0 ef ff ff 	lea    -0x1010(%rip),%r9        # 14000379f <_type__print_value_s8>
   1400047af:	41 b8 01 00 00 00    	mov    $0x1,%r8d
   1400047b5:	48 8d 05 83 ed 00 00 	lea    0xed83(%rip),%rax        # 14001353f <.rdata+0x4ef>
   1400047bc:	48 89 c2             	mov    %rax,%rdx
   1400047bf:	48 8d 05 79 ed 00 00 	lea    0xed79(%rip),%rax        # 14001353f <.rdata+0x4ef>
   1400047c6:	48 89 c1             	mov    %rax,%rcx
   1400047c9:	e8 39 d7 ff ff       	call   140001f07 <type_atom__create>
   1400047ce:	48 89 85 28 02 00 00 	mov    %rax,0x228(%rbp)
   1400047d5:	48 8b 85 20 03 00 00 	mov    0x320(%rbp),%rax
   1400047dc:	41 b8 01 00 00 00    	mov    $0x1,%r8d
   1400047e2:	48 89 c2             	mov    %rax,%rdx
   1400047e5:	48 8d 05 56 ed 00 00 	lea    0xed56(%rip),%rax        # 140013542 <.rdata+0x4f2>
   1400047ec:	48 89 c1             	mov    %rax,%rcx
   1400047ef:	e8 33 e0 ff ff       	call   140002827 <type_array__create>
   1400047f4:	48 89 85 20 02 00 00 	mov    %rax,0x220(%rbp)
   1400047fb:	48 8b 85 08 03 00 00 	mov    0x308(%rbp),%rax
   140004802:	41 b8 02 00 00 00    	mov    $0x2,%r8d
   140004808:	48 89 c2             	mov    %rax,%rdx
   14000480b:	48 8d 05 33 ed 00 00 	lea    0xed33(%rip),%rax        # 140013545 <.rdata+0x4f5>
   140004812:	48 89 c1             	mov    %rax,%rcx
   140004815:	e8 0d e0 ff ff       	call   140002827 <type_array__create>
   14000481a:	48 89 85 18 02 00 00 	mov    %rax,0x218(%rbp)
   140004821:	48 8b 85 f8 02 00 00 	mov    0x2f8(%rbp),%rax
   140004828:	41 b8 03 00 00 00    	mov    $0x3,%r8d
   14000482e:	48 89 c2             	mov    %rax,%rdx
   140004831:	48 8d 05 10 ed 00 00 	lea    0xed10(%rip),%rax        # 140013548 <.rdata+0x4f8>
   140004838:	48 89 c1             	mov    %rax,%rcx
   14000483b:	e8 e7 df ff ff       	call   140002827 <type_array__create>
   140004840:	48 89 85 10 02 00 00 	mov    %rax,0x210(%rbp)
   140004847:	48 8b 85 f0 02 00 00 	mov    0x2f0(%rbp),%rax
   14000484e:	41 b8 04 00 00 00    	mov    $0x4,%r8d
   140004854:	48 89 c2             	mov    %rax,%rdx
   140004857:	48 8d 05 ed ec 00 00 	lea    0xeced(%rip),%rax        # 14001354b <.rdata+0x4fb>
   14000485e:	48 89 c1             	mov    %rax,%rcx
   140004861:	e8 c1 df ff ff       	call   140002827 <type_array__create>
   140004866:	48 89 85 08 02 00 00 	mov    %rax,0x208(%rbp)
   14000486d:	48 8b 85 e0 02 00 00 	mov    0x2e0(%rbp),%rax
   140004874:	41 b8 05 00 00 00    	mov    $0x5,%r8d
   14000487a:	48 89 c2             	mov    %rax,%rdx
   14000487d:	48 8d 05 ca ec 00 00 	lea    0xecca(%rip),%rax        # 14001354e <.rdata+0x4fe>
   140004884:	48 89 c1             	mov    %rax,%rcx
   140004887:	e8 9b df ff ff       	call   140002827 <type_array__create>
   14000488c:	48 89 85 00 02 00 00 	mov    %rax,0x200(%rbp)
   140004893:	48 8b 85 a0 02 00 00 	mov    0x2a0(%rbp),%rax
   14000489a:	41 b8 06 00 00 00    	mov    $0x6,%r8d
   1400048a0:	48 89 c2             	mov    %rax,%rdx
   1400048a3:	48 8d 05 a7 ec 00 00 	lea    0xeca7(%rip),%rax        # 140013551 <.rdata+0x501>
   1400048aa:	48 89 c1             	mov    %rax,%rcx
   1400048ad:	e8 75 df ff ff       	call   140002827 <type_array__create>
   1400048b2:	48 89 85 f8 01 00 00 	mov    %rax,0x1f8(%rbp)
   1400048b9:	48 8b 85 90 02 00 00 	mov    0x290(%rbp),%rax
   1400048c0:	41 b8 07 00 00 00    	mov    $0x7,%r8d
   1400048c6:	48 89 c2             	mov    %rax,%rdx
   1400048c9:	48 8d 05 84 ec 00 00 	lea    0xec84(%rip),%rax        # 140013554 <.rdata+0x504>
   1400048d0:	48 89 c1             	mov    %rax,%rcx
   1400048d3:	e8 4f df ff ff       	call   140002827 <type_array__create>
   1400048d8:	48 89 85 f0 01 00 00 	mov    %rax,0x1f0(%rbp)
   1400048df:	48 8b 85 80 02 00 00 	mov    0x280(%rbp),%rax
   1400048e6:	41 b8 08 00 00 00    	mov    $0x8,%r8d
   1400048ec:	48 89 c2             	mov    %rax,%rdx
   1400048ef:	48 8d 05 61 ec 00 00 	lea    0xec61(%rip),%rax        # 140013557 <.rdata+0x507>
   1400048f6:	48 89 c1             	mov    %rax,%rcx
   1400048f9:	e8 29 df ff ff       	call   140002827 <type_array__create>
   1400048fe:	48 89 85 e8 01 00 00 	mov    %rax,0x1e8(%rbp)
   140004905:	48 8b 85 78 02 00 00 	mov    0x278(%rbp),%rax
   14000490c:	41 b8 09 00 00 00    	mov    $0x9,%r8d
   140004912:	48 89 c2             	mov    %rax,%rdx
   140004915:	48 8d 05 3e ec 00 00 	lea    0xec3e(%rip),%rax        # 14001355a <.rdata+0x50a>
   14000491c:	48 89 c1             	mov    %rax,%rcx
   14000491f:	e8 03 df ff ff       	call   140002827 <type_array__create>
   140004924:	48 89 85 e0 01 00 00 	mov    %rax,0x1e0(%rbp)
   14000492b:	48 8b 85 68 02 00 00 	mov    0x268(%rbp),%rax
   140004932:	41 b8 0a 00 00 00    	mov    $0xa,%r8d
   140004938:	48 89 c2             	mov    %rax,%rdx
   14000493b:	48 8d 05 1b ec 00 00 	lea    0xec1b(%rip),%rax        # 14001355d <.rdata+0x50d>
   140004942:	48 89 c1             	mov    %rax,%rcx
   140004945:	e8 dd de ff ff       	call   140002827 <type_array__create>
   14000494a:	48 89 85 d8 01 00 00 	mov    %rax,0x1d8(%rbp)
   140004951:	48 8b 85 58 02 00 00 	mov    0x258(%rbp),%rax
   140004958:	41 b8 0b 00 00 00    	mov    $0xb,%r8d
   14000495e:	48 89 c2             	mov    %rax,%rdx
   140004961:	48 8d 05 f8 eb 00 00 	lea    0xebf8(%rip),%rax        # 140013560 <.rdata+0x510>
   140004968:	48 89 c1             	mov    %rax,%rcx
   14000496b:	e8 b7 de ff ff       	call   140002827 <type_array__create>
   140004970:	48 89 85 d0 01 00 00 	mov    %rax,0x1d0(%rbp)
   140004977:	48 8b 85 30 02 00 00 	mov    0x230(%rbp),%rax
   14000497e:	41 b8 0c 00 00 00    	mov    $0xc,%r8d
   140004984:	48 89 c2             	mov    %rax,%rdx
   140004987:	48 8d 05 d5 eb 00 00 	lea    0xebd5(%rip),%rax        # 140013563 <.rdata+0x513>
   14000498e:	48 89 c1             	mov    %rax,%rcx
   140004991:	e8 91 de ff ff       	call   140002827 <type_array__create>
   140004996:	48 89 85 c8 01 00 00 	mov    %rax,0x1c8(%rbp)
   14000499d:	48 8d 05 c2 eb 00 00 	lea    0xebc2(%rip),%rax        # 140013566 <.rdata+0x516>
   1400049a4:	48 89 c1             	mov    %rax,%rcx
   1400049a7:	e8 cf da ff ff       	call   14000247b <type_struct__create>
   1400049ac:	48 89 85 c0 01 00 00 	mov    %rax,0x1c0(%rbp)
   1400049b3:	4c 8b 85 18 02 00 00 	mov    0x218(%rbp),%r8
   1400049ba:	48 8b 95 20 02 00 00 	mov    0x220(%rbp),%rdx
   1400049c1:	48 8b 85 c0 01 00 00 	mov    0x1c0(%rbp),%rax
   1400049c8:	48 c7 84 24 c8 00 00 	movq   $0x0,0xc8(%rsp)
   1400049cf:	00 00 00 00 00 
   1400049d4:	48 8d 0d 8e eb 00 00 	lea    0xeb8e(%rip),%rcx        # 140013569 <.rdata+0x519>
   1400049db:	48 89 8c 24 c0 00 00 	mov    %rcx,0xc0(%rsp)
   1400049e2:	00 
   1400049e3:	48 8b 8d c8 01 00 00 	mov    0x1c8(%rbp),%rcx
   1400049ea:	48 89 8c 24 b8 00 00 	mov    %rcx,0xb8(%rsp)
   1400049f1:	00 
   1400049f2:	48 8d 0d 7d eb 00 00 	lea    0xeb7d(%rip),%rcx        # 140013576 <.rdata+0x526>
   1400049f9:	48 89 8c 24 b0 00 00 	mov    %rcx,0xb0(%rsp)
   140004a00:	00 
   140004a01:	48 8b 8d d0 01 00 00 	mov    0x1d0(%rbp),%rcx
   140004a08:	48 89 8c 24 a8 00 00 	mov    %rcx,0xa8(%rsp)
   140004a0f:	00 
   140004a10:	48 8d 0d 6b eb 00 00 	lea    0xeb6b(%rip),%rcx        # 140013582 <.rdata+0x532>
   140004a17:	48 89 8c 24 a0 00 00 	mov    %rcx,0xa0(%rsp)
   140004a1e:	00 
   140004a1f:	48 8b 8d d8 01 00 00 	mov    0x1d8(%rbp),%rcx
   140004a26:	48 89 8c 24 98 00 00 	mov    %rcx,0x98(%rsp)
   140004a2d:	00 
   140004a2e:	48 8d 0d 58 eb 00 00 	lea    0xeb58(%rip),%rcx        # 14001358d <.rdata+0x53d>
   140004a35:	48 89 8c 24 90 00 00 	mov    %rcx,0x90(%rsp)
   140004a3c:	00 
   140004a3d:	48 8b 8d e0 01 00 00 	mov    0x1e0(%rbp),%rcx
   140004a44:	48 89 8c 24 88 00 00 	mov    %rcx,0x88(%rsp)
   140004a4b:	00 
   140004a4c:	48 8d 0d 44 eb 00 00 	lea    0xeb44(%rip),%rcx        # 140013597 <.rdata+0x547>
   140004a53:	48 89 8c 24 80 00 00 	mov    %rcx,0x80(%rsp)
   140004a5a:	00 
   140004a5b:	48 8b 8d e8 01 00 00 	mov    0x1e8(%rbp),%rcx
   140004a62:	48 89 4c 24 78       	mov    %rcx,0x78(%rsp)
   140004a67:	48 8d 0d 32 eb 00 00 	lea    0xeb32(%rip),%rcx        # 1400135a0 <.rdata+0x550>
   140004a6e:	48 89 4c 24 70       	mov    %rcx,0x70(%rsp)
   140004a73:	48 8b 8d f0 01 00 00 	mov    0x1f0(%rbp),%rcx
   140004a7a:	48 89 4c 24 68       	mov    %rcx,0x68(%rsp)
   140004a7f:	48 8d 0d 22 eb 00 00 	lea    0xeb22(%rip),%rcx        # 1400135a8 <.rdata+0x558>
   140004a86:	48 89 4c 24 60       	mov    %rcx,0x60(%rsp)
   140004a8b:	48 8b 8d f8 01 00 00 	mov    0x1f8(%rbp),%rcx
   140004a92:	48 89 4c 24 58       	mov    %rcx,0x58(%rsp)
   140004a97:	48 8d 0d 6a ea 00 00 	lea    0xea6a(%rip),%rcx        # 140013508 <.rdata+0x4b8>
   140004a9e:	48 89 4c 24 50       	mov    %rcx,0x50(%rsp)
   140004aa3:	48 8b 8d 00 02 00 00 	mov    0x200(%rbp),%rcx
   140004aaa:	48 89 4c 24 48       	mov    %rcx,0x48(%rsp)
   140004aaf:	48 8d 0d 37 ea 00 00 	lea    0xea37(%rip),%rcx        # 1400134ed <.rdata+0x49d>
   140004ab6:	48 89 4c 24 40       	mov    %rcx,0x40(%rsp)
   140004abb:	48 8b 8d 08 02 00 00 	mov    0x208(%rbp),%rcx
   140004ac2:	48 89 4c 24 38       	mov    %rcx,0x38(%rsp)
   140004ac7:	48 8d 0d 17 ea 00 00 	lea    0xea17(%rip),%rcx        # 1400134e5 <.rdata+0x495>
   140004ace:	48 89 4c 24 30       	mov    %rcx,0x30(%rsp)
   140004ad3:	48 8b 8d 10 02 00 00 	mov    0x210(%rbp),%rcx
   140004ada:	48 89 4c 24 28       	mov    %rcx,0x28(%rsp)
   140004adf:	48 8d 0d f6 e9 00 00 	lea    0xe9f6(%rip),%rcx        # 1400134dc <.rdata+0x48c>
   140004ae6:	48 89 4c 24 20       	mov    %rcx,0x20(%rsp)
   140004aeb:	4d 89 c1             	mov    %r8,%r9
   140004aee:	4c 8d 05 e3 e9 00 00 	lea    0xe9e3(%rip),%r8        # 1400134d8 <.rdata+0x488>
   140004af5:	48 89 c1             	mov    %rax,%rcx
   140004af8:	e8 7c ea ff ff       	call   140003579 <_type_struct__add_multiple>
   140004afd:	48 8b 85 c0 01 00 00 	mov    0x1c0(%rbp),%rax
   140004b04:	ba 01 00 00 00       	mov    $0x1,%edx
   140004b09:	48 89 c1             	mov    %rax,%rcx
   140004b0c:	e8 73 d4 ff ff       	call   140001f84 <type__set_max_alignment>
   140004b11:	48 8b 85 c0 01 00 00 	mov    0x1c0(%rbp),%rax
   140004b18:	ba 00 10 00 00       	mov    $0x1000,%edx
   140004b1d:	48 89 c1             	mov    %rax,%rcx
   140004b20:	e8 c4 d5 ff ff       	call   1400020e9 <type__set_alignment>
   140004b25:	4c 8d 0d e1 ec ff ff 	lea    -0x131f(%rip),%r9        # 14000380d <_type__print_value_s32>
   140004b2c:	41 b8 04 00 00 00    	mov    $0x4,%r8d
   140004b32:	48 8d 05 76 ea 00 00 	lea    0xea76(%rip),%rax        # 1400135af <.rdata+0x55f>
   140004b39:	48 89 c2             	mov    %rax,%rdx
   140004b3c:	48 8d 05 6c ea 00 00 	lea    0xea6c(%rip),%rax        # 1400135af <.rdata+0x55f>
   140004b43:	48 89 c1             	mov    %rax,%rcx
   140004b46:	e8 bc d3 ff ff       	call   140001f07 <type_atom__create>
   140004b4b:	48 89 85 b8 01 00 00 	mov    %rax,0x1b8(%rbp)
   140004b52:	48 8b 85 b8 01 00 00 	mov    0x1b8(%rbp),%rax
   140004b59:	ba 04 00 00 00       	mov    $0x4,%edx
   140004b5e:	48 89 c1             	mov    %rax,%rcx
   140004b61:	e8 83 d5 ff ff       	call   1400020e9 <type__set_alignment>
   140004b66:	48 8b 85 b8 01 00 00 	mov    0x1b8(%rbp),%rax
   140004b6d:	41 b8 07 00 00 00    	mov    $0x7,%r8d
   140004b73:	48 89 c2             	mov    %rax,%rdx
   140004b76:	48 8d 05 35 ea 00 00 	lea    0xea35(%rip),%rax        # 1400135b2 <.rdata+0x562>
   140004b7d:	48 89 c1             	mov    %rax,%rcx
   140004b80:	e8 a2 dc ff ff       	call   140002827 <type_array__create>
   140004b85:	48 89 85 b0 01 00 00 	mov    %rax,0x1b0(%rbp)
   140004b8c:	48 8d 05 22 ea 00 00 	lea    0xea22(%rip),%rax        # 1400135b5 <.rdata+0x565>
   140004b93:	48 89 c1             	mov    %rax,%rcx
   140004b96:	e8 e0 d8 ff ff       	call   14000247b <type_struct__create>
   140004b9b:	48 89 85 a8 01 00 00 	mov    %rax,0x1a8(%rbp)
   140004ba2:	48 8b 95 b0 01 00 00 	mov    0x1b0(%rbp),%rdx
   140004ba9:	48 8b 85 a8 01 00 00 	mov    0x1a8(%rbp),%rax
   140004bb0:	4c 8d 05 21 e9 00 00 	lea    0xe921(%rip),%r8        # 1400134d8 <.rdata+0x488>
   140004bb7:	48 89 c1             	mov    %rax,%rcx
   140004bba:	e8 15 d9 ff ff       	call   1400024d4 <type_struct__add>
   140004bbf:	48 8b 85 a8 01 00 00 	mov    0x1a8(%rbp),%rax
   140004bc6:	ba 01 00 00 00       	mov    $0x1,%edx
   140004bcb:	48 89 c1             	mov    %rax,%rcx
   140004bce:	e8 b1 d3 ff ff       	call   140001f84 <type__set_max_alignment>
   140004bd3:	48 8d 05 de e9 00 00 	lea    0xe9de(%rip),%rax        # 1400135b8 <.rdata+0x568>
   140004bda:	48 89 c1             	mov    %rax,%rcx
   140004bdd:	e8 99 d8 ff ff       	call   14000247b <type_struct__create>
   140004be2:	48 89 85 a0 01 00 00 	mov    %rax,0x1a0(%rbp)
   140004be9:	48 8b 95 b8 03 00 00 	mov    0x3b8(%rbp),%rdx
   140004bf0:	48 8b 85 a0 01 00 00 	mov    0x1a0(%rbp),%rax
   140004bf7:	4c 8d 05 da e8 00 00 	lea    0xe8da(%rip),%r8        # 1400134d8 <.rdata+0x488>
   140004bfe:	48 89 c1             	mov    %rax,%rcx
   140004c01:	e8 ce d8 ff ff       	call   1400024d4 <type_struct__add>
   140004c06:	48 8b 85 a0 01 00 00 	mov    0x1a0(%rbp),%rax
   140004c0d:	ba 00 08 00 00       	mov    $0x800,%edx
   140004c12:	48 89 c1             	mov    %rax,%rcx
   140004c15:	e8 cf d4 ff ff       	call   1400020e9 <type__set_alignment>
   140004c1a:	4c 8d 0d 7e eb ff ff 	lea    -0x1482(%rip),%r9        # 14000379f <_type__print_value_s8>
   140004c21:	41 b8 01 00 00 00    	mov    $0x1,%r8d
   140004c27:	48 8d 05 8d e9 00 00 	lea    0xe98d(%rip),%rax        # 1400135bb <.rdata+0x56b>
   140004c2e:	48 89 c2             	mov    %rax,%rdx
   140004c31:	48 8d 05 83 e9 00 00 	lea    0xe983(%rip),%rax        # 1400135bb <.rdata+0x56b>
   140004c38:	48 89 c1             	mov    %rax,%rcx
   140004c3b:	e8 c7 d2 ff ff       	call   140001f07 <type_atom__create>
   140004c40:	48 89 85 98 01 00 00 	mov    %rax,0x198(%rbp)
   140004c47:	48 8b 85 98 01 00 00 	mov    0x198(%rbp),%rax
   140004c4e:	ba 04 00 00 00       	mov    $0x4,%edx
   140004c53:	48 89 c1             	mov    %rax,%rcx
   140004c56:	e8 8e d4 ff ff       	call   1400020e9 <type__set_alignment>
   140004c5b:	48 8d 05 5c e9 00 00 	lea    0xe95c(%rip),%rax        # 1400135be <.rdata+0x56e>
   140004c62:	48 89 c1             	mov    %rax,%rcx
   140004c65:	e8 ef dc ff ff       	call   140002959 <type_enum__create>
   140004c6a:	48 89 85 90 01 00 00 	mov    %rax,0x190(%rbp)
   140004c71:	48 8b 85 90 01 00 00 	mov    0x190(%rbp),%rax
   140004c78:	48 8d 15 42 e9 00 00 	lea    0xe942(%rip),%rdx        # 1400135c1 <.rdata+0x571>
   140004c7f:	48 89 c1             	mov    %rax,%rcx
   140004c82:	e8 4c de ff ff       	call   140002ad3 <type_enum__add>
   140004c87:	48 8b 85 90 01 00 00 	mov    0x190(%rbp),%rax
   140004c8e:	41 b8 ff ff ff ff    	mov    $0xffffffff,%r8d
   140004c94:	48 8d 15 2d e9 00 00 	lea    0xe92d(%rip),%rdx        # 1400135c8 <.rdata+0x578>
   140004c9b:	48 89 c1             	mov    %rax,%rcx
   140004c9e:	e8 cc de ff ff       	call   140002b6f <type_enum__add_with_value>
   140004ca3:	48 8b 85 90 01 00 00 	mov    0x190(%rbp),%rax
   140004caa:	48 8d 15 1f e9 00 00 	lea    0xe91f(%rip),%rdx        # 1400135d0 <.rdata+0x580>
   140004cb1:	48 89 c1             	mov    %rax,%rcx
   140004cb4:	e8 1a de ff ff       	call   140002ad3 <type_enum__add>
   140004cb9:	48 8b 85 90 01 00 00 	mov    0x190(%rbp),%rax
   140004cc0:	48 8d 15 11 e9 00 00 	lea    0xe911(%rip),%rdx        # 1400135d8 <.rdata+0x588>
   140004cc7:	48 89 c1             	mov    %rax,%rcx
   140004cca:	e8 04 de ff ff       	call   140002ad3 <type_enum__add>
   140004ccf:	48 8d 05 0b e9 00 00 	lea    0xe90b(%rip),%rax        # 1400135e1 <.rdata+0x591>
   140004cd6:	48 89 c1             	mov    %rax,%rcx
   140004cd9:	e8 7b dc ff ff       	call   140002959 <type_enum__create>
   140004cde:	48 89 85 88 01 00 00 	mov    %rax,0x188(%rbp)
   140004ce5:	48 8b 85 88 01 00 00 	mov    0x188(%rbp),%rax
   140004cec:	41 b8 f6 ff ff ff    	mov    $0xfffffff6,%r8d
   140004cf2:	48 8d 15 eb e8 00 00 	lea    0xe8eb(%rip),%rdx        # 1400135e4 <.rdata+0x594>
   140004cf9:	48 89 c1             	mov    %rax,%rcx
   140004cfc:	e8 6e de ff ff       	call   140002b6f <type_enum__add_with_value>
   140004d01:	48 8b 85 88 01 00 00 	mov    0x188(%rbp),%rax
   140004d08:	48 8d 15 db e8 00 00 	lea    0xe8db(%rip),%rdx        # 1400135ea <.rdata+0x59a>
   140004d0f:	48 89 c1             	mov    %rax,%rcx
   140004d12:	e8 bc dd ff ff       	call   140002ad3 <type_enum__add>
   140004d17:	48 8b 85 88 01 00 00 	mov    0x188(%rbp),%rax
   140004d1e:	48 8d 15 cb e8 00 00 	lea    0xe8cb(%rip),%rdx        # 1400135f0 <.rdata+0x5a0>
   140004d25:	48 89 c1             	mov    %rax,%rcx
   140004d28:	e8 a6 dd ff ff       	call   140002ad3 <type_enum__add>
   140004d2d:	48 8b 85 88 01 00 00 	mov    0x188(%rbp),%rax
   140004d34:	48 8d 15 bb e8 00 00 	lea    0xe8bb(%rip),%rdx        # 1400135f6 <.rdata+0x5a6>
   140004d3b:	48 89 c1             	mov    %rax,%rcx
   140004d3e:	e8 90 dd ff ff       	call   140002ad3 <type_enum__add>
   140004d43:	48 8b 85 88 01 00 00 	mov    0x188(%rbp),%rax
   140004d4a:	ba 00 10 00 00       	mov    $0x1000,%edx
   140004d4f:	48 89 c1             	mov    %rax,%rcx
   140004d52:	e8 92 d3 ff ff       	call   1400020e9 <type__set_alignment>
   140004d57:	b9 01 00 00 00       	mov    $0x1,%ecx
   140004d5c:	48 8b 05 65 65 01 00 	mov    0x16565(%rip),%rax        # 14001b2c8 <__imp___acrt_iob_func>
   140004d63:	ff d0                	call   *%rax
   140004d65:	48 89 c2             	mov    %rax,%rdx
   140004d68:	48 8b 85 b8 03 00 00 	mov    0x3b8(%rbp),%rax
   140004d6f:	48 c7 44 24 20 00 00 	movq   $0x0,0x20(%rsp)
   140004d76:	00 00 
   140004d78:	41 b9 00 00 00 00    	mov    $0x0,%r9d
   140004d7e:	41 b8 02 00 00 00    	mov    $0x2,%r8d
   140004d84:	48 89 c1             	mov    %rax,%rcx
   140004d87:	e8 52 e5 ff ff       	call   1400032de <type__print>
   140004d8c:	48 8d 45 50          	lea    0x50(%rbp),%rax
   140004d90:	4c 8d 0d 19 e7 00 00 	lea    0xe719(%rip),%r9        # 1400134b0 <.rdata+0x460>
   140004d97:	4c 8d 05 5e e8 00 00 	lea    0xe85e(%rip),%r8        # 1400135fc <.rdata+0x5ac>
   140004d9e:	ba 00 01 00 00       	mov    $0x100,%edx
   140004da3:	48 89 c1             	mov    %rax,%rcx
   140004da6:	e8 25 c8 00 00       	call   1400115d0 <snprintf>
   140004dab:	48 8d 45 50          	lea    0x50(%rbp),%rax
   140004daf:	48 c7 44 24 20 01 00 	movq   $0x1,0x20(%rsp)
   140004db6:	00 00 
   140004db8:	49 89 c1             	mov    %rax,%r9
   140004dbb:	41 b8 16 00 00 00    	mov    $0x16,%r8d
   140004dc1:	ba 16 00 00 00       	mov    $0x16,%edx
   140004dc6:	48 8d 05 84 e4 00 00 	lea    0xe484(%rip),%rax        # 140013251 <.rdata+0x201>
   140004dcd:	48 89 c1             	mov    %rax,%rcx
   140004dd0:	e8 5b c8 00 00       	call   140011630 <printf>
   140004dd5:	48 8d 45 50          	lea    0x50(%rbp),%rax
   140004dd9:	4c 8d 0d d0 e6 00 00 	lea    0xe6d0(%rip),%r9        # 1400134b0 <.rdata+0x460>
   140004de0:	4c 8d 05 22 e8 00 00 	lea    0xe822(%rip),%r8        # 140013609 <.rdata+0x5b9>
   140004de7:	ba 00 01 00 00       	mov    $0x100,%edx
   140004dec:	48 89 c1             	mov    %rax,%rcx
   140004def:	e8 dc c7 00 00       	call   1400115d0 <snprintf>
   140004df4:	48 8d 45 50          	lea    0x50(%rbp),%rax
   140004df8:	48 c7 44 24 20 01 00 	movq   $0x1,0x20(%rsp)
   140004dff:	00 00 
   140004e01:	49 89 c1             	mov    %rax,%r9
   140004e04:	41 b8 16 00 00 00    	mov    $0x16,%r8d
   140004e0a:	ba 16 00 00 00       	mov    $0x16,%edx
   140004e0f:	48 8d 05 3b e4 00 00 	lea    0xe43b(%rip),%rax        # 140013251 <.rdata+0x201>
   140004e16:	48 89 c1             	mov    %rax,%rcx
   140004e19:	e8 12 c8 00 00       	call   140011630 <printf>
   140004e1e:	b9 0a 00 00 00       	mov    $0xa,%ecx
   140004e23:	e8 68 cc 00 00       	call   140011a90 <putchar>
   140004e28:	48 8b 85 b8 03 00 00 	mov    0x3b8(%rbp),%rax
   140004e2f:	48 89 c1             	mov    %rax,%rcx
   140004e32:	e8 34 d3 ff ff       	call   14000216b <type__size>
   140004e37:	48 83 f8 01          	cmp    $0x1,%rax
   140004e3b:	74 23                	je     140004e60 <main2+0x1481>
   140004e3d:	41 b8 83 04 00 00    	mov    $0x483,%r8d
   140004e43:	48 8d 05 06 e2 00 00 	lea    0xe206(%rip),%rax        # 140013050 <.rdata>
   140004e4a:	48 89 c2             	mov    %rax,%rdx
   140004e4d:	48 8d 05 c4 e7 00 00 	lea    0xe7c4(%rip),%rax        # 140013618 <.rdata+0x5c8>
   140004e54:	48 89 c1             	mov    %rax,%rcx
   140004e57:	48 8b 05 e2 64 01 00 	mov    0x164e2(%rip),%rax        # 14001b340 <__imp__assert>
   140004e5e:	ff d0                	call   *%rax
   140004e60:	48 8b 85 b8 03 00 00 	mov    0x3b8(%rbp),%rax
   140004e67:	48 8b 40 10          	mov    0x10(%rax),%rax
   140004e6b:	48 83 f8 01          	cmp    $0x1,%rax
   140004e6f:	74 23                	je     140004e94 <main2+0x14b5>
   140004e71:	41 b8 83 04 00 00    	mov    $0x483,%r8d
   140004e77:	48 8d 05 d2 e1 00 00 	lea    0xe1d2(%rip),%rax        # 140013050 <.rdata>
   140004e7e:	48 89 c2             	mov    %rax,%rdx
   140004e81:	48 8d 05 c0 e7 00 00 	lea    0xe7c0(%rip),%rax        # 140013648 <.rdata+0x5f8>
   140004e88:	48 89 c1             	mov    %rax,%rcx
   140004e8b:	48 8b 05 ae 64 01 00 	mov    0x164ae(%rip),%rax        # 14001b340 <__imp__assert>
   140004e92:	ff d0                	call   *%rax
   140004e94:	b9 01 00 00 00       	mov    $0x1,%ecx
   140004e99:	48 8b 05 28 64 01 00 	mov    0x16428(%rip),%rax        # 14001b2c8 <__imp___acrt_iob_func>
   140004ea0:	ff d0                	call   *%rax
   140004ea2:	48 89 c2             	mov    %rax,%rdx
   140004ea5:	48 8b 85 b0 03 00 00 	mov    0x3b0(%rbp),%rax
   140004eac:	48 c7 44 24 20 00 00 	movq   $0x0,0x20(%rsp)
   140004eb3:	00 00 
   140004eb5:	41 b9 00 00 00 00    	mov    $0x0,%r9d
   140004ebb:	41 b8 02 00 00 00    	mov    $0x2,%r8d
   140004ec1:	48 89 c1             	mov    %rax,%rcx
   140004ec4:	e8 15 e4 ff ff       	call   1400032de <type__print>
   140004ec9:	48 8d 45 50          	lea    0x50(%rbp),%rax
   140004ecd:	4c 8d 0d df e5 00 00 	lea    0xe5df(%rip),%r9        # 1400134b3 <.rdata+0x463>
   140004ed4:	4c 8d 05 21 e7 00 00 	lea    0xe721(%rip),%r8        # 1400135fc <.rdata+0x5ac>
   140004edb:	ba 00 01 00 00       	mov    $0x100,%edx
   140004ee0:	48 89 c1             	mov    %rax,%rcx
   140004ee3:	e8 e8 c6 00 00       	call   1400115d0 <snprintf>
   140004ee8:	48 8d 45 50          	lea    0x50(%rbp),%rax
   140004eec:	48 c7 44 24 20 02 00 	movq   $0x2,0x20(%rsp)
   140004ef3:	00 00 
   140004ef5:	49 89 c1             	mov    %rax,%r9
   140004ef8:	41 b8 16 00 00 00    	mov    $0x16,%r8d
   140004efe:	ba 16 00 00 00       	mov    $0x16,%edx
   140004f03:	48 8d 05 47 e3 00 00 	lea    0xe347(%rip),%rax        # 140013251 <.rdata+0x201>
   140004f0a:	48 89 c1             	mov    %rax,%rcx
   140004f0d:	e8 1e c7 00 00       	call   140011630 <printf>
   140004f12:	48 8d 45 50          	lea    0x50(%rbp),%rax
   140004f16:	4c 8d 0d 96 e5 00 00 	lea    0xe596(%rip),%r9        # 1400134b3 <.rdata+0x463>
   140004f1d:	4c 8d 05 e5 e6 00 00 	lea    0xe6e5(%rip),%r8        # 140013609 <.rdata+0x5b9>
   140004f24:	ba 00 01 00 00       	mov    $0x100,%edx
   140004f29:	48 89 c1             	mov    %rax,%rcx
   140004f2c:	e8 9f c6 00 00       	call   1400115d0 <snprintf>
   140004f31:	48 8d 45 50          	lea    0x50(%rbp),%rax
   140004f35:	48 c7 44 24 20 02 00 	movq   $0x2,0x20(%rsp)
   140004f3c:	00 00 
   140004f3e:	49 89 c1             	mov    %rax,%r9
   140004f41:	41 b8 16 00 00 00    	mov    $0x16,%r8d
   140004f47:	ba 16 00 00 00       	mov    $0x16,%edx
   140004f4c:	48 8d 05 fe e2 00 00 	lea    0xe2fe(%rip),%rax        # 140013251 <.rdata+0x201>
   140004f53:	48 89 c1             	mov    %rax,%rcx
   140004f56:	e8 d5 c6 00 00       	call   140011630 <printf>
   140004f5b:	b9 0a 00 00 00       	mov    $0xa,%ecx
   140004f60:	e8 2b cb 00 00       	call   140011a90 <putchar>
   140004f65:	48 8b 85 b0 03 00 00 	mov    0x3b0(%rbp),%rax
   140004f6c:	48 89 c1             	mov    %rax,%rcx
   140004f6f:	e8 f7 d1 ff ff       	call   14000216b <type__size>
   140004f74:	48 83 f8 02          	cmp    $0x2,%rax
   140004f78:	74 23                	je     140004f9d <main2+0x15be>
   140004f7a:	41 b8 84 04 00 00    	mov    $0x484,%r8d
   140004f80:	48 8d 05 c9 e0 00 00 	lea    0xe0c9(%rip),%rax        # 140013050 <.rdata>
   140004f87:	48 89 c2             	mov    %rax,%rdx
   140004f8a:	48 8d 05 df e6 00 00 	lea    0xe6df(%rip),%rax        # 140013670 <.rdata+0x620>
   140004f91:	48 89 c1             	mov    %rax,%rcx
   140004f94:	48 8b 05 a5 63 01 00 	mov    0x163a5(%rip),%rax        # 14001b340 <__imp__assert>
   140004f9b:	ff d0                	call   *%rax
   140004f9d:	48 8b 85 b0 03 00 00 	mov    0x3b0(%rbp),%rax
   140004fa4:	48 8b 40 10          	mov    0x10(%rax),%rax
   140004fa8:	48 83 f8 02          	cmp    $0x2,%rax
   140004fac:	74 23                	je     140004fd1 <main2+0x15f2>
   140004fae:	41 b8 84 04 00 00    	mov    $0x484,%r8d
   140004fb4:	48 8d 05 95 e0 00 00 	lea    0xe095(%rip),%rax        # 140013050 <.rdata>
   140004fbb:	48 89 c2             	mov    %rax,%rdx
   140004fbe:	48 8d 05 db e6 00 00 	lea    0xe6db(%rip),%rax        # 1400136a0 <.rdata+0x650>
   140004fc5:	48 89 c1             	mov    %rax,%rcx
   140004fc8:	48 8b 05 71 63 01 00 	mov    0x16371(%rip),%rax        # 14001b340 <__imp__assert>
   140004fcf:	ff d0                	call   *%rax
   140004fd1:	b9 01 00 00 00       	mov    $0x1,%ecx
   140004fd6:	48 8b 05 eb 62 01 00 	mov    0x162eb(%rip),%rax        # 14001b2c8 <__imp___acrt_iob_func>
   140004fdd:	ff d0                	call   *%rax
   140004fdf:	48 89 c2             	mov    %rax,%rdx
   140004fe2:	48 8b 85 a8 03 00 00 	mov    0x3a8(%rbp),%rax
   140004fe9:	48 c7 44 24 20 00 00 	movq   $0x0,0x20(%rsp)
   140004ff0:	00 00 
   140004ff2:	41 b9 00 00 00 00    	mov    $0x0,%r9d
   140004ff8:	41 b8 02 00 00 00    	mov    $0x2,%r8d
   140004ffe:	48 89 c1             	mov    %rax,%rcx
   140005001:	e8 d8 e2 ff ff       	call   1400032de <type__print>
   140005006:	48 8d 45 50          	lea    0x50(%rbp),%rax
   14000500a:	4c 8d 0d a6 e4 00 00 	lea    0xe4a6(%rip),%r9        # 1400134b7 <.rdata+0x467>
   140005011:	4c 8d 05 e4 e5 00 00 	lea    0xe5e4(%rip),%r8        # 1400135fc <.rdata+0x5ac>
   140005018:	ba 00 01 00 00       	mov    $0x100,%edx
   14000501d:	48 89 c1             	mov    %rax,%rcx
   140005020:	e8 ab c5 00 00       	call   1400115d0 <snprintf>
   140005025:	48 8d 45 50          	lea    0x50(%rbp),%rax
   140005029:	48 c7 44 24 20 04 00 	movq   $0x4,0x20(%rsp)
   140005030:	00 00 
   140005032:	49 89 c1             	mov    %rax,%r9
   140005035:	41 b8 16 00 00 00    	mov    $0x16,%r8d
   14000503b:	ba 16 00 00 00       	mov    $0x16,%edx
   140005040:	48 8d 05 0a e2 00 00 	lea    0xe20a(%rip),%rax        # 140013251 <.rdata+0x201>
   140005047:	48 89 c1             	mov    %rax,%rcx
   14000504a:	e8 e1 c5 00 00       	call   140011630 <printf>
   14000504f:	48 8d 45 50          	lea    0x50(%rbp),%rax
   140005053:	4c 8d 0d 5d e4 00 00 	lea    0xe45d(%rip),%r9        # 1400134b7 <.rdata+0x467>
   14000505a:	4c 8d 05 a8 e5 00 00 	lea    0xe5a8(%rip),%r8        # 140013609 <.rdata+0x5b9>
   140005061:	ba 00 01 00 00       	mov    $0x100,%edx
   140005066:	48 89 c1             	mov    %rax,%rcx
   140005069:	e8 62 c5 00 00       	call   1400115d0 <snprintf>
   14000506e:	48 8d 45 50          	lea    0x50(%rbp),%rax
   140005072:	48 c7 44 24 20 04 00 	movq   $0x4,0x20(%rsp)
   140005079:	00 00 
   14000507b:	49 89 c1             	mov    %rax,%r9
   14000507e:	41 b8 16 00 00 00    	mov    $0x16,%r8d
   140005084:	ba 16 00 00 00       	mov    $0x16,%edx
   140005089:	48 8d 05 c1 e1 00 00 	lea    0xe1c1(%rip),%rax        # 140013251 <.rdata+0x201>
   140005090:	48 89 c1             	mov    %rax,%rcx
   140005093:	e8 98 c5 00 00       	call   140011630 <printf>
   140005098:	b9 0a 00 00 00       	mov    $0xa,%ecx
   14000509d:	e8 ee c9 00 00       	call   140011a90 <putchar>
   1400050a2:	48 8b 85 a8 03 00 00 	mov    0x3a8(%rbp),%rax
   1400050a9:	48 89 c1             	mov    %rax,%rcx
   1400050ac:	e8 ba d0 ff ff       	call   14000216b <type__size>
   1400050b1:	48 83 f8 04          	cmp    $0x4,%rax
   1400050b5:	74 23                	je     1400050da <main2+0x16fb>
   1400050b7:	41 b8 85 04 00 00    	mov    $0x485,%r8d
   1400050bd:	48 8d 05 8c df 00 00 	lea    0xdf8c(%rip),%rax        # 140013050 <.rdata>
   1400050c4:	48 89 c2             	mov    %rax,%rdx
   1400050c7:	48 8d 05 02 e6 00 00 	lea    0xe602(%rip),%rax        # 1400136d0 <.rdata+0x680>
   1400050ce:	48 89 c1             	mov    %rax,%rcx
   1400050d1:	48 8b 05 68 62 01 00 	mov    0x16268(%rip),%rax        # 14001b340 <__imp__assert>
   1400050d8:	ff d0                	call   *%rax
   1400050da:	48 8b 85 a8 03 00 00 	mov    0x3a8(%rbp),%rax
   1400050e1:	48 8b 40 10          	mov    0x10(%rax),%rax
   1400050e5:	48 83 f8 04          	cmp    $0x4,%rax
   1400050e9:	74 23                	je     14000510e <main2+0x172f>
   1400050eb:	41 b8 85 04 00 00    	mov    $0x485,%r8d
   1400050f1:	48 8d 05 58 df 00 00 	lea    0xdf58(%rip),%rax        # 140013050 <.rdata>
   1400050f8:	48 89 c2             	mov    %rax,%rdx
   1400050fb:	48 8d 05 fe e5 00 00 	lea    0xe5fe(%rip),%rax        # 140013700 <.rdata+0x6b0>
   140005102:	48 89 c1             	mov    %rax,%rcx
   140005105:	48 8b 05 34 62 01 00 	mov    0x16234(%rip),%rax        # 14001b340 <__imp__assert>
   14000510c:	ff d0                	call   *%rax
   14000510e:	b9 01 00 00 00       	mov    $0x1,%ecx
   140005113:	48 8b 05 ae 61 01 00 	mov    0x161ae(%rip),%rax        # 14001b2c8 <__imp___acrt_iob_func>
   14000511a:	ff d0                	call   *%rax
   14000511c:	48 89 c2             	mov    %rax,%rdx
   14000511f:	48 8b 85 a0 03 00 00 	mov    0x3a0(%rbp),%rax
   140005126:	48 c7 44 24 20 00 00 	movq   $0x0,0x20(%rsp)
   14000512d:	00 00 
   14000512f:	41 b9 00 00 00 00    	mov    $0x0,%r9d
   140005135:	41 b8 02 00 00 00    	mov    $0x2,%r8d
   14000513b:	48 89 c1             	mov    %rax,%rcx
   14000513e:	e8 9b e1 ff ff       	call   1400032de <type__print>
   140005143:	48 8d 45 50          	lea    0x50(%rbp),%rax
   140005147:	4c 8d 0d 6d e3 00 00 	lea    0xe36d(%rip),%r9        # 1400134bb <.rdata+0x46b>
   14000514e:	4c 8d 05 a7 e4 00 00 	lea    0xe4a7(%rip),%r8        # 1400135fc <.rdata+0x5ac>
   140005155:	ba 00 01 00 00       	mov    $0x100,%edx
   14000515a:	48 89 c1             	mov    %rax,%rcx
   14000515d:	e8 6e c4 00 00       	call   1400115d0 <snprintf>
   140005162:	48 8d 45 50          	lea    0x50(%rbp),%rax
   140005166:	48 c7 44 24 20 08 00 	movq   $0x8,0x20(%rsp)
   14000516d:	00 00 
   14000516f:	49 89 c1             	mov    %rax,%r9
   140005172:	41 b8 16 00 00 00    	mov    $0x16,%r8d
   140005178:	ba 16 00 00 00       	mov    $0x16,%edx
